

Microchip MPLAB XC8 Assembler V2.32 build 20210201212658 
                                                                                               Tue May 11 23:31:20 2021

Microchip MPLAB XC8 C Compiler v2.32 (Free license) build 20210201212658 Og1 
     1                           	processor	16F15244
     2                           	pagewidth 120
     3                           	opt	flic
     4                           	psect	intentry,global,class=CODE,delta=2
     5                           	psect	text0,local,class=CODE,merge=1,delta=2
     6                           	psect	nvBANK0,global,class=BANK0,space=1,delta=1,noexec
     7                           	psect	cinit,global,class=CODE,merge=1,delta=2
     8                           	psect	bssBANK0,global,class=BANK0,space=1,delta=1,noexec
     9                           	psect	bssBANK1,global,class=BANK1,space=1,delta=1,noexec
    10                           	psect	clrtext,global,class=CODE,delta=2
    11                           	psect	cstackCOMMON,global,class=COMMON,space=1,delta=1,noexec
    12                           	psect	maintext,global,class=CODE,merge=1,split=1,delta=2
    13                           	psect	text1,local,class=CODE,merge=1,delta=2
    14                           	psect	text2,local,class=CODE,merge=1,delta=2
    15                           	psect	text3,local,class=CODE,merge=1,delta=2
    16                           	psect	text4,local,class=CODE,merge=1,delta=2
    17                           	psect	text5,local,class=CODE,merge=1,delta=2
    18                           	psect	text6,local,class=CODE,merge=1,delta=2
    19                           	psect	text7,local,class=CODE,merge=1,delta=2
    20                           	psect	text8,local,class=CODE,merge=1,delta=2
    21                           	psect	text9,local,class=CODE,merge=1,delta=2
    22                           	psect	text10,local,class=CODE,merge=1,delta=2
    23                           	psect	text11,local,class=CODE,merge=1,delta=2
    24                           	psect	text12,local,class=CODE,merge=1,delta=2
    25                           	psect	text13,local,class=CODE,merge=1,delta=2
    26                           	psect	text14,local,class=CODE,merge=1,delta=2
    27                           	psect	text15,local,class=CODE,merge=1,delta=2
    28                           	psect	text16,local,class=CODE,merge=1,delta=2
    29                           	psect	text17,local,class=CODE,merge=1,delta=2
    30                           	psect	text18,local,class=CODE,merge=1,delta=2
    31                           	psect	text19,local,class=CODE,merge=1,delta=2
    32                           	psect	text20,local,class=CODE,merge=1,delta=2
    33                           	psect	text21,local,class=CODE,merge=1,delta=2
    34                           	dabs	1,0x71,1,_EE_Key_2
    35                           	dabs	1,0x70,1,_EE_Key_1
    36                           	dabs	1,0x7E,2
    37  0000                     
    38                           ; Version 2.35
    39                           ; Generated 13/04/2021 GMT
    40                           ; 
    41                           ; Copyright © 2021, Microchip Technology Inc. and its subsidiaries ("Microchip")
    42                           ; All rights reserved.
    43                           ; 
    44                           ; This software is developed by Microchip Technology Inc. and its subsidiaries ("Microch
      +                          ip").
    45                           ; 
    46                           ; Redistribution and use in source and binary forms, with or without modification, are
    47                           ; permitted provided that the following conditions are met:
    48                           ; 
    49                           ;     1. Redistributions of source code must retain the above copyright notice, this lis
      +                          t of
    50                           ;        conditions and the following disclaimer.
    51                           ; 
    52                           ;     2. Redistributions in binary form must reproduce the above copyright notice, this 
      +                          list
    53                           ;        of conditions and the following disclaimer in the documentation and/or other
    54                           ;        materials provided with the distribution. Publication is not required when
    55                           ;        this file is used in an embedded application.
    56                           ; 
    57                           ;     3. Microchip's name may not be used to endorse or promote products derived from th
      +                          is
    58                           ;        software without specific prior written permission.
    59                           ; 
    60                           ; THIS SOFTWARE IS PROVIDED BY MICROCHIP "AS IS" AND ANY EXPRESS OR IMPLIED WARRANTIES,
    61                           ; INCLUDING, BUT NOT LIMITED TO, THE IMPLIED WARRANTIES OF MERCHANTABILITY AND FITNESS F
      +                          OR
    62                           ; PURPOSE ARE DISCLAIMED.  IN NO EVENT SHALL MICROCHIP BE LIABLE FOR ANY DIRECT, INDIREC
      +                          T,
    63                           ; INCIDENTAL, SPECIAL, EXEMPLARY, OR CONSEQUENTIAL DAMAGES (INCLUDING BUT NOT LIMITED TO
    64                           ; PROCUREMENT OF SUBSTITUTE GOODS OR SERVICES; LOSS OF USE, DATA OR PROFITS; OR BUSINESS
    65                           ; INTERRUPTION) HOWSOEVER CAUSED AND ON ANY THEORY OF LIABILITY, WHETHER IN CONTRACT, ST
      +                          RICT
    66                           ; LIABILITY, OR TORT (INCLUDING NEGLIGENCE OR OTHERWISE) ARISING IN ANY WAY OUT OF THE U
      +                          SE OF
    67                           ; THIS SOFTWARE, EVEN IF ADVISED OF THE POSSIBILITY OF SUCH DAMAGE.
    68                           ; 
    69                           ; 
    70                           ; Code-generator required, PIC16F15244 Definitions
    71                           ; 
    72                           ; SFR Addresses
    73  0000                     	;# 
    74  0001                     	;# 
    75  0002                     	;# 
    76  0003                     	;# 
    77  0004                     	;# 
    78  0005                     	;# 
    79  0006                     	;# 
    80  0007                     	;# 
    81  0008                     	;# 
    82  0009                     	;# 
    83  000A                     	;# 
    84  000B                     	;# 
    85  000C                     	;# 
    86  000D                     	;# 
    87  000E                     	;# 
    88  0012                     	;# 
    89  0013                     	;# 
    90  0014                     	;# 
    91  0018                     	;# 
    92  0019                     	;# 
    93  001A                     	;# 
    94  009A                     	;# 
    95  009B                     	;# 
    96  009B                     	;# 
    97  009C                     	;# 
    98  009D                     	;# 
    99  009E                     	;# 
   100  009F                     	;# 
   101  010C                     	;# 
   102  010D                     	;# 
   103  0119                     	;# 
   104  011A                     	;# 
   105  011B                     	;# 
   106  011B                     	;# 
   107  011C                     	;# 
   108  011D                     	;# 
   109  011E                     	;# 
   110  011F                     	;# 
   111  018C                     	;# 
   112  018D                     	;# 
   113  018E                     	;# 
   114  018F                     	;# 
   115  0190                     	;# 
   116  0191                     	;# 
   117  0192                     	;# 
   118  020C                     	;# 
   119  020D                     	;# 
   120  020E                     	;# 
   121  020E                     	;# 
   122  020F                     	;# 
   123  020F                     	;# 
   124  0210                     	;# 
   125  0210                     	;# 
   126  0211                     	;# 
   127  0211                     	;# 
   128  028C                     	;# 
   129  028C                     	;# 
   130  028D                     	;# 
   131  028D                     	;# 
   132  028E                     	;# 
   133  028F                     	;# 
   134  0290                     	;# 
   135  0291                     	;# 
   136  030C                     	;# 
   137  030C                     	;# 
   138  030D                     	;# 
   139  030E                     	;# 
   140  030F                     	;# 
   141  0310                     	;# 
   142  0310                     	;# 
   143  0311                     	;# 
   144  0312                     	;# 
   145  0313                     	;# 
   146  0314                     	;# 
   147  0314                     	;# 
   148  0315                     	;# 
   149  0316                     	;# 
   150  0318                     	;# 
   151  0318                     	;# 
   152  0319                     	;# 
   153  031A                     	;# 
   154  059C                     	;# 
   155  059C                     	;# 
   156  059D                     	;# 
   157  059D                     	;# 
   158  059E                     	;# 
   159  059F                     	;# 
   160  070C                     	;# 
   161  070D                     	;# 
   162  070E                     	;# 
   163  0716                     	;# 
   164  0717                     	;# 
   165  0718                     	;# 
   166  080C                     	;# 
   167  0811                     	;# 
   168  0813                     	;# 
   169  0814                     	;# 
   170  081A                     	;# 
   171  081A                     	;# 
   172  081B                     	;# 
   173  081C                     	;# 
   174  081C                     	;# 
   175  081D                     	;# 
   176  081E                     	;# 
   177  081F                     	;# 
   178  088E                     	;# 
   179  0890                     	;# 
   180  0891                     	;# 
   181  0892                     	;# 
   182  0893                     	;# 
   183  090C                     	;# 
   184  1E8F                     	;# 
   185  1E90                     	;# 
   186  1E91                     	;# 
   187  1E92                     	;# 
   188  1E93                     	;# 
   189  1E9C                     	;# 
   190  1EA1                     	;# 
   191  1EA2                     	;# 
   192  1EC3                     	;# 
   193  1EC5                     	;# 
   194  1EC6                     	;# 
   195  1EC7                     	;# 
   196  1ECB                     	;# 
   197  1ECB                     	;# 
   198  1ECB                     	;# 
   199  1ECC                     	;# 
   200  1ECC                     	;# 
   201  1ECC                     	;# 
   202  1F10                     	;# 
   203  1F11                     	;# 
   204  1F12                     	;# 
   205  1F14                     	;# 
   206  1F15                     	;# 
   207  1F1C                     	;# 
   208  1F1D                     	;# 
   209  1F1E                     	;# 
   210  1F1F                     	;# 
   211  1F20                     	;# 
   212  1F21                     	;# 
   213  1F22                     	;# 
   214  1F23                     	;# 
   215  1F24                     	;# 
   216  1F25                     	;# 
   217  1F26                     	;# 
   218  1F27                     	;# 
   219  1F38                     	;# 
   220  1F39                     	;# 
   221  1F3A                     	;# 
   222  1F3B                     	;# 
   223  1F3C                     	;# 
   224  1F3D                     	;# 
   225  1F3E                     	;# 
   226  1F3F                     	;# 
   227  1F43                     	;# 
   228  1F44                     	;# 
   229  1F45                     	;# 
   230  1F46                     	;# 
   231  1F47                     	;# 
   232  1F48                     	;# 
   233  1F49                     	;# 
   234  1F4A                     	;# 
   235  1F4E                     	;# 
   236  1F4F                     	;# 
   237  1F50                     	;# 
   238  1F51                     	;# 
   239  1F52                     	;# 
   240  1F53                     	;# 
   241  1F54                     	;# 
   242  1F55                     	;# 
   243  1FE4                     	;# 
   244  1FE5                     	;# 
   245  1FE6                     	;# 
   246  1FE7                     	;# 
   247  1FE8                     	;# 
   248  1FE8                     	;# 
   249  1FE9                     	;# 
   250  1FEA                     	;# 
   251  1FEB                     	;# 
   252  1FED                     	;# 
   253  1FEE                     	;# 
   254  1FEF                     	;# 
   255  0000                     	;# 
   256  0001                     	;# 
   257  0002                     	;# 
   258  0003                     	;# 
   259  0004                     	;# 
   260  0005                     	;# 
   261  0006                     	;# 
   262  0007                     	;# 
   263  0008                     	;# 
   264  0009                     	;# 
   265  000A                     	;# 
   266  000B                     	;# 
   267  000C                     	;# 
   268  000D                     	;# 
   269  000E                     	;# 
   270  0012                     	;# 
   271  0013                     	;# 
   272  0014                     	;# 
   273  0018                     	;# 
   274  0019                     	;# 
   275  001A                     	;# 
   276  009A                     	;# 
   277  009B                     	;# 
   278  009B                     	;# 
   279  009C                     	;# 
   280  009D                     	;# 
   281  009E                     	;# 
   282  009F                     	;# 
   283  010C                     	;# 
   284  010D                     	;# 
   285  0119                     	;# 
   286  011A                     	;# 
   287  011B                     	;# 
   288  011B                     	;# 
   289  011C                     	;# 
   290  011D                     	;# 
   291  011E                     	;# 
   292  011F                     	;# 
   293  018C                     	;# 
   294  018D                     	;# 
   295  018E                     	;# 
   296  018F                     	;# 
   297  0190                     	;# 
   298  0191                     	;# 
   299  0192                     	;# 
   300  020C                     	;# 
   301  020D                     	;# 
   302  020E                     	;# 
   303  020E                     	;# 
   304  020F                     	;# 
   305  020F                     	;# 
   306  0210                     	;# 
   307  0210                     	;# 
   308  0211                     	;# 
   309  0211                     	;# 
   310  028C                     	;# 
   311  028C                     	;# 
   312  028D                     	;# 
   313  028D                     	;# 
   314  028E                     	;# 
   315  028F                     	;# 
   316  0290                     	;# 
   317  0291                     	;# 
   318  030C                     	;# 
   319  030C                     	;# 
   320  030D                     	;# 
   321  030E                     	;# 
   322  030F                     	;# 
   323  0310                     	;# 
   324  0310                     	;# 
   325  0311                     	;# 
   326  0312                     	;# 
   327  0313                     	;# 
   328  0314                     	;# 
   329  0314                     	;# 
   330  0315                     	;# 
   331  0316                     	;# 
   332  0318                     	;# 
   333  0318                     	;# 
   334  0319                     	;# 
   335  031A                     	;# 
   336  059C                     	;# 
   337  059C                     	;# 
   338  059D                     	;# 
   339  059D                     	;# 
   340  059E                     	;# 
   341  059F                     	;# 
   342  070C                     	;# 
   343  070D                     	;# 
   344  070E                     	;# 
   345  0716                     	;# 
   346  0717                     	;# 
   347  0718                     	;# 
   348  080C                     	;# 
   349  0811                     	;# 
   350  0813                     	;# 
   351  0814                     	;# 
   352  081A                     	;# 
   353  081A                     	;# 
   354  081B                     	;# 
   355  081C                     	;# 
   356  081C                     	;# 
   357  081D                     	;# 
   358  081E                     	;# 
   359  081F                     	;# 
   360  088E                     	;# 
   361  0890                     	;# 
   362  0891                     	;# 
   363  0892                     	;# 
   364  0893                     	;# 
   365  090C                     	;# 
   366  1E8F                     	;# 
   367  1E90                     	;# 
   368  1E91                     	;# 
   369  1E92                     	;# 
   370  1E93                     	;# 
   371  1E9C                     	;# 
   372  1EA1                     	;# 
   373  1EA2                     	;# 
   374  1EC3                     	;# 
   375  1EC5                     	;# 
   376  1EC6                     	;# 
   377  1EC7                     	;# 
   378  1ECB                     	;# 
   379  1ECB                     	;# 
   380  1ECB                     	;# 
   381  1ECC                     	;# 
   382  1ECC                     	;# 
   383  1ECC                     	;# 
   384  1F10                     	;# 
   385  1F11                     	;# 
   386  1F12                     	;# 
   387  1F14                     	;# 
   388  1F15                     	;# 
   389  1F1C                     	;# 
   390  1F1D                     	;# 
   391  1F1E                     	;# 
   392  1F1F                     	;# 
   393  1F20                     	;# 
   394  1F21                     	;# 
   395  1F22                     	;# 
   396  1F23                     	;# 
   397  1F24                     	;# 
   398  1F25                     	;# 
   399  1F26                     	;# 
   400  1F27                     	;# 
   401  1F38                     	;# 
   402  1F39                     	;# 
   403  1F3A                     	;# 
   404  1F3B                     	;# 
   405  1F3C                     	;# 
   406  1F3D                     	;# 
   407  1F3E                     	;# 
   408  1F3F                     	;# 
   409  1F43                     	;# 
   410  1F44                     	;# 
   411  1F45                     	;# 
   412  1F46                     	;# 
   413  1F47                     	;# 
   414  1F48                     	;# 
   415  1F49                     	;# 
   416  1F4A                     	;# 
   417  1F4E                     	;# 
   418  1F4F                     	;# 
   419  1F50                     	;# 
   420  1F51                     	;# 
   421  1F52                     	;# 
   422  1F53                     	;# 
   423  1F54                     	;# 
   424  1F55                     	;# 
   425  1FE4                     	;# 
   426  1FE5                     	;# 
   427  1FE6                     	;# 
   428  1FE7                     	;# 
   429  1FE8                     	;# 
   430  1FE8                     	;# 
   431  1FE9                     	;# 
   432  1FEA                     	;# 
   433  1FEB                     	;# 
   434  1FED                     	;# 
   435  1FEE                     	;# 
   436  1FEF                     	;# 
   437  0000                     	;# 
   438  0001                     	;# 
   439  0002                     	;# 
   440  0003                     	;# 
   441  0004                     	;# 
   442  0005                     	;# 
   443  0006                     	;# 
   444  0007                     	;# 
   445  0008                     	;# 
   446  0009                     	;# 
   447  000A                     	;# 
   448  000B                     	;# 
   449  000C                     	;# 
   450  000D                     	;# 
   451  000E                     	;# 
   452  0012                     	;# 
   453  0013                     	;# 
   454  0014                     	;# 
   455  0018                     	;# 
   456  0019                     	;# 
   457  001A                     	;# 
   458  009A                     	;# 
   459  009B                     	;# 
   460  009B                     	;# 
   461  009C                     	;# 
   462  009D                     	;# 
   463  009E                     	;# 
   464  009F                     	;# 
   465  010C                     	;# 
   466  010D                     	;# 
   467  0119                     	;# 
   468  011A                     	;# 
   469  011B                     	;# 
   470  011B                     	;# 
   471  011C                     	;# 
   472  011D                     	;# 
   473  011E                     	;# 
   474  011F                     	;# 
   475  018C                     	;# 
   476  018D                     	;# 
   477  018E                     	;# 
   478  018F                     	;# 
   479  0190                     	;# 
   480  0191                     	;# 
   481  0192                     	;# 
   482  020C                     	;# 
   483  020D                     	;# 
   484  020E                     	;# 
   485  020E                     	;# 
   486  020F                     	;# 
   487  020F                     	;# 
   488  0210                     	;# 
   489  0210                     	;# 
   490  0211                     	;# 
   491  0211                     	;# 
   492  028C                     	;# 
   493  028C                     	;# 
   494  028D                     	;# 
   495  028D                     	;# 
   496  028E                     	;# 
   497  028F                     	;# 
   498  0290                     	;# 
   499  0291                     	;# 
   500  030C                     	;# 
   501  030C                     	;# 
   502  030D                     	;# 
   503  030E                     	;# 
   504  030F                     	;# 
   505  0310                     	;# 
   506  0310                     	;# 
   507  0311                     	;# 
   508  0312                     	;# 
   509  0313                     	;# 
   510  0314                     	;# 
   511  0314                     	;# 
   512  0315                     	;# 
   513  0316                     	;# 
   514  0318                     	;# 
   515  0318                     	;# 
   516  0319                     	;# 
   517  031A                     	;# 
   518  059C                     	;# 
   519  059C                     	;# 
   520  059D                     	;# 
   521  059D                     	;# 
   522  059E                     	;# 
   523  059F                     	;# 
   524  070C                     	;# 
   525  070D                     	;# 
   526  070E                     	;# 
   527  0716                     	;# 
   528  0717                     	;# 
   529  0718                     	;# 
   530  080C                     	;# 
   531  0811                     	;# 
   532  0813                     	;# 
   533  0814                     	;# 
   534  081A                     	;# 
   535  081A                     	;# 
   536  081B                     	;# 
   537  081C                     	;# 
   538  081C                     	;# 
   539  081D                     	;# 
   540  081E                     	;# 
   541  081F                     	;# 
   542  088E                     	;# 
   543  0890                     	;# 
   544  0891                     	;# 
   545  0892                     	;# 
   546  0893                     	;# 
   547  090C                     	;# 
   548  1E8F                     	;# 
   549  1E90                     	;# 
   550  1E91                     	;# 
   551  1E92                     	;# 
   552  1E93                     	;# 
   553  1E9C                     	;# 
   554  1EA1                     	;# 
   555  1EA2                     	;# 
   556  1EC3                     	;# 
   557  1EC5                     	;# 
   558  1EC6                     	;# 
   559  1EC7                     	;# 
   560  1ECB                     	;# 
   561  1ECB                     	;# 
   562  1ECB                     	;# 
   563  1ECC                     	;# 
   564  1ECC                     	;# 
   565  1ECC                     	;# 
   566  1F10                     	;# 
   567  1F11                     	;# 
   568  1F12                     	;# 
   569  1F14                     	;# 
   570  1F15                     	;# 
   571  1F1C                     	;# 
   572  1F1D                     	;# 
   573  1F1E                     	;# 
   574  1F1F                     	;# 
   575  1F20                     	;# 
   576  1F21                     	;# 
   577  1F22                     	;# 
   578  1F23                     	;# 
   579  1F24                     	;# 
   580  1F25                     	;# 
   581  1F26                     	;# 
   582  1F27                     	;# 
   583  1F38                     	;# 
   584  1F39                     	;# 
   585  1F3A                     	;# 
   586  1F3B                     	;# 
   587  1F3C                     	;# 
   588  1F3D                     	;# 
   589  1F3E                     	;# 
   590  1F3F                     	;# 
   591  1F43                     	;# 
   592  1F44                     	;# 
   593  1F45                     	;# 
   594  1F46                     	;# 
   595  1F47                     	;# 
   596  1F48                     	;# 
   597  1F49                     	;# 
   598  1F4A                     	;# 
   599  1F4E                     	;# 
   600  1F4F                     	;# 
   601  1F50                     	;# 
   602  1F51                     	;# 
   603  1F52                     	;# 
   604  1F53                     	;# 
   605  1F54                     	;# 
   606  1F55                     	;# 
   607  1FE4                     	;# 
   608  1FE5                     	;# 
   609  1FE6                     	;# 
   610  1FE7                     	;# 
   611  1FE8                     	;# 
   612  1FE8                     	;# 
   613  1FE9                     	;# 
   614  1FEA                     	;# 
   615  1FEB                     	;# 
   616  1FED                     	;# 
   617  1FEE                     	;# 
   618  1FEF                     	;# 
   619  0000                     	;# 
   620  0001                     	;# 
   621  0002                     	;# 
   622  0003                     	;# 
   623  0004                     	;# 
   624  0005                     	;# 
   625  0006                     	;# 
   626  0007                     	;# 
   627  0008                     	;# 
   628  0009                     	;# 
   629  000A                     	;# 
   630  000B                     	;# 
   631  000C                     	;# 
   632  000D                     	;# 
   633  000E                     	;# 
   634  0012                     	;# 
   635  0013                     	;# 
   636  0014                     	;# 
   637  0018                     	;# 
   638  0019                     	;# 
   639  001A                     	;# 
   640  009A                     	;# 
   641  009B                     	;# 
   642  009B                     	;# 
   643  009C                     	;# 
   644  009D                     	;# 
   645  009E                     	;# 
   646  009F                     	;# 
   647  010C                     	;# 
   648  010D                     	;# 
   649  0119                     	;# 
   650  011A                     	;# 
   651  011B                     	;# 
   652  011B                     	;# 
   653  011C                     	;# 
   654  011D                     	;# 
   655  011E                     	;# 
   656  011F                     	;# 
   657  018C                     	;# 
   658  018D                     	;# 
   659  018E                     	;# 
   660  018F                     	;# 
   661  0190                     	;# 
   662  0191                     	;# 
   663  0192                     	;# 
   664  020C                     	;# 
   665  020D                     	;# 
   666  020E                     	;# 
   667  020E                     	;# 
   668  020F                     	;# 
   669  020F                     	;# 
   670  0210                     	;# 
   671  0210                     	;# 
   672  0211                     	;# 
   673  0211                     	;# 
   674  028C                     	;# 
   675  028C                     	;# 
   676  028D                     	;# 
   677  028D                     	;# 
   678  028E                     	;# 
   679  028F                     	;# 
   680  0290                     	;# 
   681  0291                     	;# 
   682  030C                     	;# 
   683  030C                     	;# 
   684  030D                     	;# 
   685  030E                     	;# 
   686  030F                     	;# 
   687  0310                     	;# 
   688  0310                     	;# 
   689  0311                     	;# 
   690  0312                     	;# 
   691  0313                     	;# 
   692  0314                     	;# 
   693  0314                     	;# 
   694  0315                     	;# 
   695  0316                     	;# 
   696  0318                     	;# 
   697  0318                     	;# 
   698  0319                     	;# 
   699  031A                     	;# 
   700  059C                     	;# 
   701  059C                     	;# 
   702  059D                     	;# 
   703  059D                     	;# 
   704  059E                     	;# 
   705  059F                     	;# 
   706  070C                     	;# 
   707  070D                     	;# 
   708  070E                     	;# 
   709  0716                     	;# 
   710  0717                     	;# 
   711  0718                     	;# 
   712  080C                     	;# 
   713  0811                     	;# 
   714  0813                     	;# 
   715  0814                     	;# 
   716  081A                     	;# 
   717  081A                     	;# 
   718  081B                     	;# 
   719  081C                     	;# 
   720  081C                     	;# 
   721  081D                     	;# 
   722  081E                     	;# 
   723  081F                     	;# 
   724  088E                     	;# 
   725  0890                     	;# 
   726  0891                     	;# 
   727  0892                     	;# 
   728  0893                     	;# 
   729  090C                     	;# 
   730  1E8F                     	;# 
   731  1E90                     	;# 
   732  1E91                     	;# 
   733  1E92                     	;# 
   734  1E93                     	;# 
   735  1E9C                     	;# 
   736  1EA1                     	;# 
   737  1EA2                     	;# 
   738  1EC3                     	;# 
   739  1EC5                     	;# 
   740  1EC6                     	;# 
   741  1EC7                     	;# 
   742  1ECB                     	;# 
   743  1ECB                     	;# 
   744  1ECB                     	;# 
   745  1ECC                     	;# 
   746  1ECC                     	;# 
   747  1ECC                     	;# 
   748  1F10                     	;# 
   749  1F11                     	;# 
   750  1F12                     	;# 
   751  1F14                     	;# 
   752  1F15                     	;# 
   753  1F1C                     	;# 
   754  1F1D                     	;# 
   755  1F1E                     	;# 
   756  1F1F                     	;# 
   757  1F20                     	;# 
   758  1F21                     	;# 
   759  1F22                     	;# 
   760  1F23                     	;# 
   761  1F24                     	;# 
   762  1F25                     	;# 
   763  1F26                     	;# 
   764  1F27                     	;# 
   765  1F38                     	;# 
   766  1F39                     	;# 
   767  1F3A                     	;# 
   768  1F3B                     	;# 
   769  1F3C                     	;# 
   770  1F3D                     	;# 
   771  1F3E                     	;# 
   772  1F3F                     	;# 
   773  1F43                     	;# 
   774  1F44                     	;# 
   775  1F45                     	;# 
   776  1F46                     	;# 
   777  1F47                     	;# 
   778  1F48                     	;# 
   779  1F49                     	;# 
   780  1F4A                     	;# 
   781  1F4E                     	;# 
   782  1F4F                     	;# 
   783  1F50                     	;# 
   784  1F51                     	;# 
   785  1F52                     	;# 
   786  1F53                     	;# 
   787  1F54                     	;# 
   788  1F55                     	;# 
   789  1FE4                     	;# 
   790  1FE5                     	;# 
   791  1FE6                     	;# 
   792  1FE7                     	;# 
   793  1FE8                     	;# 
   794  1FE8                     	;# 
   795  1FE9                     	;# 
   796  1FEA                     	;# 
   797  1FEB                     	;# 
   798  1FED                     	;# 
   799  1FEE                     	;# 
   800  1FEF                     	;# 
   801  0000                     	;# 
   802  0001                     	;# 
   803  0002                     	;# 
   804  0003                     	;# 
   805  0004                     	;# 
   806  0005                     	;# 
   807  0006                     	;# 
   808  0007                     	;# 
   809  0008                     	;# 
   810  0009                     	;# 
   811  000A                     	;# 
   812  000B                     	;# 
   813  000C                     	;# 
   814  000D                     	;# 
   815  000E                     	;# 
   816  0012                     	;# 
   817  0013                     	;# 
   818  0014                     	;# 
   819  0018                     	;# 
   820  0019                     	;# 
   821  001A                     	;# 
   822  009A                     	;# 
   823  009B                     	;# 
   824  009B                     	;# 
   825  009C                     	;# 
   826  009D                     	;# 
   827  009E                     	;# 
   828  009F                     	;# 
   829  010C                     	;# 
   830  010D                     	;# 
   831  0119                     	;# 
   832  011A                     	;# 
   833  011B                     	;# 
   834  011B                     	;# 
   835  011C                     	;# 
   836  011D                     	;# 
   837  011E                     	;# 
   838  011F                     	;# 
   839  018C                     	;# 
   840  018D                     	;# 
   841  018E                     	;# 
   842  018F                     	;# 
   843  0190                     	;# 
   844  0191                     	;# 
   845  0192                     	;# 
   846  020C                     	;# 
   847  020D                     	;# 
   848  020E                     	;# 
   849  020E                     	;# 
   850  020F                     	;# 
   851  020F                     	;# 
   852  0210                     	;# 
   853  0210                     	;# 
   854  0211                     	;# 
   855  0211                     	;# 
   856  028C                     	;# 
   857  028C                     	;# 
   858  028D                     	;# 
   859  028D                     	;# 
   860  028E                     	;# 
   861  028F                     	;# 
   862  0290                     	;# 
   863  0291                     	;# 
   864  030C                     	;# 
   865  030C                     	;# 
   866  030D                     	;# 
   867  030E                     	;# 
   868  030F                     	;# 
   869  0310                     	;# 
   870  0310                     	;# 
   871  0311                     	;# 
   872  0312                     	;# 
   873  0313                     	;# 
   874  0314                     	;# 
   875  0314                     	;# 
   876  0315                     	;# 
   877  0316                     	;# 
   878  0318                     	;# 
   879  0318                     	;# 
   880  0319                     	;# 
   881  031A                     	;# 
   882  059C                     	;# 
   883  059C                     	;# 
   884  059D                     	;# 
   885  059D                     	;# 
   886  059E                     	;# 
   887  059F                     	;# 
   888  070C                     	;# 
   889  070D                     	;# 
   890  070E                     	;# 
   891  0716                     	;# 
   892  0717                     	;# 
   893  0718                     	;# 
   894  080C                     	;# 
   895  0811                     	;# 
   896  0813                     	;# 
   897  0814                     	;# 
   898  081A                     	;# 
   899  081A                     	;# 
   900  081B                     	;# 
   901  081C                     	;# 
   902  081C                     	;# 
   903  081D                     	;# 
   904  081E                     	;# 
   905  081F                     	;# 
   906  088E                     	;# 
   907  0890                     	;# 
   908  0891                     	;# 
   909  0892                     	;# 
   910  0893                     	;# 
   911  090C                     	;# 
   912  1E8F                     	;# 
   913  1E90                     	;# 
   914  1E91                     	;# 
   915  1E92                     	;# 
   916  1E93                     	;# 
   917  1E9C                     	;# 
   918  1EA1                     	;# 
   919  1EA2                     	;# 
   920  1EC3                     	;# 
   921  1EC5                     	;# 
   922  1EC6                     	;# 
   923  1EC7                     	;# 
   924  1ECB                     	;# 
   925  1ECB                     	;# 
   926  1ECB                     	;# 
   927  1ECC                     	;# 
   928  1ECC                     	;# 
   929  1ECC                     	;# 
   930  1F10                     	;# 
   931  1F11                     	;# 
   932  1F12                     	;# 
   933  1F14                     	;# 
   934  1F15                     	;# 
   935  1F1C                     	;# 
   936  1F1D                     	;# 
   937  1F1E                     	;# 
   938  1F1F                     	;# 
   939  1F20                     	;# 
   940  1F21                     	;# 
   941  1F22                     	;# 
   942  1F23                     	;# 
   943  1F24                     	;# 
   944  1F25                     	;# 
   945  1F26                     	;# 
   946  1F27                     	;# 
   947  1F38                     	;# 
   948  1F39                     	;# 
   949  1F3A                     	;# 
   950  1F3B                     	;# 
   951  1F3C                     	;# 
   952  1F3D                     	;# 
   953  1F3E                     	;# 
   954  1F3F                     	;# 
   955  1F43                     	;# 
   956  1F44                     	;# 
   957  1F45                     	;# 
   958  1F46                     	;# 
   959  1F47                     	;# 
   960  1F48                     	;# 
   961  1F49                     	;# 
   962  1F4A                     	;# 
   963  1F4E                     	;# 
   964  1F4F                     	;# 
   965  1F50                     	;# 
   966  1F51                     	;# 
   967  1F52                     	;# 
   968  1F53                     	;# 
   969  1F54                     	;# 
   970  1F55                     	;# 
   971  1FE4                     	;# 
   972  1FE5                     	;# 
   973  1FE6                     	;# 
   974  1FE7                     	;# 
   975  1FE8                     	;# 
   976  1FE8                     	;# 
   977  1FE9                     	;# 
   978  1FEA                     	;# 
   979  1FEB                     	;# 
   980  1FED                     	;# 
   981  1FEE                     	;# 
   982  1FEF                     	;# 
   983  0000                     	;# 
   984  0001                     	;# 
   985  0002                     	;# 
   986  0003                     	;# 
   987  0004                     	;# 
   988  0005                     	;# 
   989  0006                     	;# 
   990  0007                     	;# 
   991  0008                     	;# 
   992  0009                     	;# 
   993  000A                     	;# 
   994  000B                     	;# 
   995  000C                     	;# 
   996  000D                     	;# 
   997  000E                     	;# 
   998  0012                     	;# 
   999  0013                     	;# 
  1000  0014                     	;# 
  1001  0018                     	;# 
  1002  0019                     	;# 
  1003  001A                     	;# 
  1004  009A                     	;# 
  1005  009B                     	;# 
  1006  009B                     	;# 
  1007  009C                     	;# 
  1008  009D                     	;# 
  1009  009E                     	;# 
  1010  009F                     	;# 
  1011  010C                     	;# 
  1012  010D                     	;# 
  1013  0119                     	;# 
  1014  011A                     	;# 
  1015  011B                     	;# 
  1016  011B                     	;# 
  1017  011C                     	;# 
  1018  011D                     	;# 
  1019  011E                     	;# 
  1020  011F                     	;# 
  1021  018C                     	;# 
  1022  018D                     	;# 
  1023  018E                     	;# 
  1024  018F                     	;# 
  1025  0190                     	;# 
  1026  0191                     	;# 
  1027  0192                     	;# 
  1028  020C                     	;# 
  1029  020D                     	;# 
  1030  020E                     	;# 
  1031  020E                     	;# 
  1032  020F                     	;# 
  1033  020F                     	;# 
  1034  0210                     	;# 
  1035  0210                     	;# 
  1036  0211                     	;# 
  1037  0211                     	;# 
  1038  028C                     	;# 
  1039  028C                     	;# 
  1040  028D                     	;# 
  1041  028D                     	;# 
  1042  028E                     	;# 
  1043  028F                     	;# 
  1044  0290                     	;# 
  1045  0291                     	;# 
  1046  030C                     	;# 
  1047  030C                     	;# 
  1048  030D                     	;# 
  1049  030E                     	;# 
  1050  030F                     	;# 
  1051  0310                     	;# 
  1052  0310                     	;# 
  1053  0311                     	;# 
  1054  0312                     	;# 
  1055  0313                     	;# 
  1056  0314                     	;# 
  1057  0314                     	;# 
  1058  0315                     	;# 
  1059  0316                     	;# 
  1060  0318                     	;# 
  1061  0318                     	;# 
  1062  0319                     	;# 
  1063  031A                     	;# 
  1064  059C                     	;# 
  1065  059C                     	;# 
  1066  059D                     	;# 
  1067  059D                     	;# 
  1068  059E                     	;# 
  1069  059F                     	;# 
  1070  070C                     	;# 
  1071  070D                     	;# 
  1072  070E                     	;# 
  1073  0716                     	;# 
  1074  0717                     	;# 
  1075  0718                     	;# 
  1076  080C                     	;# 
  1077  0811                     	;# 
  1078  0813                     	;# 
  1079  0814                     	;# 
  1080  081A                     	;# 
  1081  081A                     	;# 
  1082  081B                     	;# 
  1083  081C                     	;# 
  1084  081C                     	;# 
  1085  081D                     	;# 
  1086  081E                     	;# 
  1087  081F                     	;# 
  1088  088E                     	;# 
  1089  0890                     	;# 
  1090  0891                     	;# 
  1091  0892                     	;# 
  1092  0893                     	;# 
  1093  090C                     	;# 
  1094  1E8F                     	;# 
  1095  1E90                     	;# 
  1096  1E91                     	;# 
  1097  1E92                     	;# 
  1098  1E93                     	;# 
  1099  1E9C                     	;# 
  1100  1EA1                     	;# 
  1101  1EA2                     	;# 
  1102  1EC3                     	;# 
  1103  1EC5                     	;# 
  1104  1EC6                     	;# 
  1105  1EC7                     	;# 
  1106  1ECB                     	;# 
  1107  1ECB                     	;# 
  1108  1ECB                     	;# 
  1109  1ECC                     	;# 
  1110  1ECC                     	;# 
  1111  1ECC                     	;# 
  1112  1F10                     	;# 
  1113  1F11                     	;# 
  1114  1F12                     	;# 
  1115  1F14                     	;# 
  1116  1F15                     	;# 
  1117  1F1C                     	;# 
  1118  1F1D                     	;# 
  1119  1F1E                     	;# 
  1120  1F1F                     	;# 
  1121  1F20                     	;# 
  1122  1F21                     	;# 
  1123  1F22                     	;# 
  1124  1F23                     	;# 
  1125  1F24                     	;# 
  1126  1F25                     	;# 
  1127  1F26                     	;# 
  1128  1F27                     	;# 
  1129  1F38                     	;# 
  1130  1F39                     	;# 
  1131  1F3A                     	;# 
  1132  1F3B                     	;# 
  1133  1F3C                     	;# 
  1134  1F3D                     	;# 
  1135  1F3E                     	;# 
  1136  1F3F                     	;# 
  1137  1F43                     	;# 
  1138  1F44                     	;# 
  1139  1F45                     	;# 
  1140  1F46                     	;# 
  1141  1F47                     	;# 
  1142  1F48                     	;# 
  1143  1F49                     	;# 
  1144  1F4A                     	;# 
  1145  1F4E                     	;# 
  1146  1F4F                     	;# 
  1147  1F50                     	;# 
  1148  1F51                     	;# 
  1149  1F52                     	;# 
  1150  1F53                     	;# 
  1151  1F54                     	;# 
  1152  1F55                     	;# 
  1153  1FE4                     	;# 
  1154  1FE5                     	;# 
  1155  1FE6                     	;# 
  1156  1FE7                     	;# 
  1157  1FE8                     	;# 
  1158  1FE8                     	;# 
  1159  1FE9                     	;# 
  1160  1FEA                     	;# 
  1161  1FEB                     	;# 
  1162  1FED                     	;# 
  1163  1FEE                     	;# 
  1164  1FEF                     	;# 
  1165                           
  1166                           	psect	intentry
  1167  0004  3184               	pagesel	1028	;# 
  1168  0005  2C04               	goto	1028	;# 
  1169  0000                     	;# 
  1170  0001                     	;# 
  1171  0002                     	;# 
  1172  0003                     	;# 
  1173  0004                     	;# 
  1174  0005                     	;# 
  1175  0006                     	;# 
  1176  0007                     	;# 
  1177  0008                     	;# 
  1178  0009                     	;# 
  1179  000A                     	;# 
  1180  000B                     	;# 
  1181  000C                     	;# 
  1182  000D                     	;# 
  1183  000E                     	;# 
  1184  0012                     	;# 
  1185  0013                     	;# 
  1186  0014                     	;# 
  1187  0018                     	;# 
  1188  0019                     	;# 
  1189  001A                     	;# 
  1190  009A                     	;# 
  1191  009B                     	;# 
  1192  009B                     	;# 
  1193  009C                     	;# 
  1194  009D                     	;# 
  1195  009E                     	;# 
  1196  009F                     	;# 
  1197  010C                     	;# 
  1198  010D                     	;# 
  1199  0119                     	;# 
  1200  011A                     	;# 
  1201  011B                     	;# 
  1202  011B                     	;# 
  1203  011C                     	;# 
  1204  011D                     	;# 
  1205  011E                     	;# 
  1206  011F                     	;# 
  1207  018C                     	;# 
  1208  018D                     	;# 
  1209  018E                     	;# 
  1210  018F                     	;# 
  1211  0190                     	;# 
  1212  0191                     	;# 
  1213  0192                     	;# 
  1214  020C                     	;# 
  1215  020D                     	;# 
  1216  020E                     	;# 
  1217  020E                     	;# 
  1218  020F                     	;# 
  1219  020F                     	;# 
  1220  0210                     	;# 
  1221  0210                     	;# 
  1222  0211                     	;# 
  1223  0211                     	;# 
  1224  028C                     	;# 
  1225  028C                     	;# 
  1226  028D                     	;# 
  1227  028D                     	;# 
  1228  028E                     	;# 
  1229  028F                     	;# 
  1230  0290                     	;# 
  1231  0291                     	;# 
  1232  030C                     	;# 
  1233  030C                     	;# 
  1234  030D                     	;# 
  1235  030E                     	;# 
  1236  030F                     	;# 
  1237  0310                     	;# 
  1238  0310                     	;# 
  1239  0311                     	;# 
  1240  0312                     	;# 
  1241  0313                     	;# 
  1242  0314                     	;# 
  1243  0314                     	;# 
  1244  0315                     	;# 
  1245  0316                     	;# 
  1246  0318                     	;# 
  1247  0318                     	;# 
  1248  0319                     	;# 
  1249  031A                     	;# 
  1250  059C                     	;# 
  1251  059C                     	;# 
  1252  059D                     	;# 
  1253  059D                     	;# 
  1254  059E                     	;# 
  1255  059F                     	;# 
  1256  070C                     	;# 
  1257  070D                     	;# 
  1258  070E                     	;# 
  1259  0716                     	;# 
  1260  0717                     	;# 
  1261  0718                     	;# 
  1262  080C                     	;# 
  1263  0811                     	;# 
  1264  0813                     	;# 
  1265  0814                     	;# 
  1266  081A                     	;# 
  1267  081A                     	;# 
  1268  081B                     	;# 
  1269  081C                     	;# 
  1270  081C                     	;# 
  1271  081D                     	;# 
  1272  081E                     	;# 
  1273  081F                     	;# 
  1274  088E                     	;# 
  1275  0890                     	;# 
  1276  0891                     	;# 
  1277  0892                     	;# 
  1278  0893                     	;# 
  1279  090C                     	;# 
  1280  1E8F                     	;# 
  1281  1E90                     	;# 
  1282  1E91                     	;# 
  1283  1E92                     	;# 
  1284  1E93                     	;# 
  1285  1E9C                     	;# 
  1286  1EA1                     	;# 
  1287  1EA2                     	;# 
  1288  1EC3                     	;# 
  1289  1EC5                     	;# 
  1290  1EC6                     	;# 
  1291  1EC7                     	;# 
  1292  1ECB                     	;# 
  1293  1ECB                     	;# 
  1294  1ECB                     	;# 
  1295  1ECC                     	;# 
  1296  1ECC                     	;# 
  1297  1ECC                     	;# 
  1298  1F10                     	;# 
  1299  1F11                     	;# 
  1300  1F12                     	;# 
  1301  1F14                     	;# 
  1302  1F15                     	;# 
  1303  1F1C                     	;# 
  1304  1F1D                     	;# 
  1305  1F1E                     	;# 
  1306  1F1F                     	;# 
  1307  1F20                     	;# 
  1308  1F21                     	;# 
  1309  1F22                     	;# 
  1310  1F23                     	;# 
  1311  1F24                     	;# 
  1312  1F25                     	;# 
  1313  1F26                     	;# 
  1314  1F27                     	;# 
  1315  1F38                     	;# 
  1316  1F39                     	;# 
  1317  1F3A                     	;# 
  1318  1F3B                     	;# 
  1319  1F3C                     	;# 
  1320  1F3D                     	;# 
  1321  1F3E                     	;# 
  1322  1F3F                     	;# 
  1323  1F43                     	;# 
  1324  1F44                     	;# 
  1325  1F45                     	;# 
  1326  1F46                     	;# 
  1327  1F47                     	;# 
  1328  1F48                     	;# 
  1329  1F49                     	;# 
  1330  1F4A                     	;# 
  1331  1F4E                     	;# 
  1332  1F4F                     	;# 
  1333  1F50                     	;# 
  1334  1F51                     	;# 
  1335  1F52                     	;# 
  1336  1F53                     	;# 
  1337  1F54                     	;# 
  1338  1F55                     	;# 
  1339  1FE4                     	;# 
  1340  1FE5                     	;# 
  1341  1FE6                     	;# 
  1342  1FE7                     	;# 
  1343  1FE8                     	;# 
  1344  1FE8                     	;# 
  1345  1FE9                     	;# 
  1346  1FEA                     	;# 
  1347  1FEB                     	;# 
  1348  1FED                     	;# 
  1349  1FEE                     	;# 
  1350  1FEF                     	;# 
  1351                           
  1352 ;; Function _EUSART1_DefaultFramingErrorHandler is unused but had its address taken
  1353  0000                     
  1354 ;; Function _EUSART1_DefaultOverrunErrorHandler is unused but had its address taken
  1355  0000                     
  1356 ;; Function _EUSART1_DefaultErrorHandler is unused but had its address taken
  1357  0000                     
  1358                           	psect	text0
  1359  0000                     __ptext0:
  1360                           
  1361                           	psect	nvBANK0
  1362  0029                     __pnvBANK0:
  1363  0029                     _EUSART1_ErrorHandler:
  1364  0029                     	ds	2
  1365  002B                     _EUSART1_OverrunErrorHandler:
  1366  002B                     	ds	2
  1367  002D                     _EUSART1_FramingErrorHandler:
  1368  002D                     	ds	2
  1369  000E                     _PORTCbits	set	14
  1370  0008                     _BSR	set	8
  1371  000B                     _INTCONbits	set	11
  1372  0014                     _TRISC	set	20
  1373  0013                     _TRISB	set	19
  1374  0012                     _TRISA	set	18
  1375  001A                     _LATC	set	26
  1376  0019                     _LATB	set	25
  1377  0018                     _LATA	set	24
  1378  011A                     _TX1REG	set	282
  1379  0119                     _RC1REG	set	281
  1380  011D                     _RC1STAbits	set	285
  1381  011C                     _SP1BRGH	set	284
  1382  011B                     _SP1BRGL	set	283
  1383  011E                     _TX1STA	set	286
  1384  011D                     _RC1STA	set	285
  1385  011F                     _BAUD1CON	set	287
  1386  011F                     _BAUD1CONbits	set	287
  1387  011E                     _TX1STAbits	set	286
  1388  070D                     _PIR1bits	set	1805
  1389  081E                     _NVMCON1	set	2078
  1390  081F                     _NVMCON2	set	2079
  1391  081C                     _NVMDATL	set	2076
  1392  081D                     _NVMDATH	set	2077
  1393  081E                     _NVMCON1bits	set	2078
  1394  081B                     _NVMADRH	set	2075
  1395  081A                     _NVMADRL	set	2074
  1396  080C                     _WDTCON	set	2060
  1397  0892                     _OSCTUNE	set	2194
  1398  0893                     _OSCFRQ	set	2195
  1399  0891                     _OSCEN	set	2193
  1400  1ECB                     _RX1PPS	set	7883
  1401  1F20                     _RC0PPS	set	7968
  1402  1F52                     _INLVLC	set	8018
  1403  1F47                     _INLVLB	set	8007
  1404  1F3C                     _INLVLA	set	7996
  1405  1F51                     _SLRCONC	set	8017
  1406  1F46                     _SLRCONB	set	8006
  1407  1F3B                     _SLRCONA	set	7995
  1408  1F50                     _ODCONC	set	8016
  1409  1F45                     _ODCONB	set	8005
  1410  1F3A                     _ODCONA	set	7994
  1411  1F4F                     _WPUC	set	8015
  1412  1F39                     _WPUA	set	7993
  1413  1F44                     _WPUB	set	8004
  1414  1F38                     _ANSELA	set	7992
  1415  1F43                     _ANSELB	set	8003
  1416  1F4E                     _ANSELC	set	8014
  1417  1FED                     _STKPTR	set	8173
  1418                           
  1419                           	psect	cinit
  1420  0008                     start_initialization:	
  1421                           ; #config settings
  1422                           
  1423  0008                     __initialization:
  1424                           
  1425                           ; Clear objects allocated to BANK0
  1426  0008  3020               	movlw	low __pbssBANK0
  1427  0009  0084               	movwf	4
  1428  000A  3000               	movlw	high __pbssBANK0
  1429  000B  0085               	movwf	5
  1430  000C  3009               	movlw	9
  1431  000D  3183  233A  3180   	fcall	clear_ram0
  1432                           
  1433                           ; Clear objects allocated to BANK1
  1434  0010  30A0               	movlw	low __pbssBANK1
  1435  0011  0084               	movwf	4
  1436  0012  3000               	movlw	high __pbssBANK1
  1437  0013  0085               	movwf	5
  1438  0014  3049               	movlw	73
  1439  0015  3183  233A  3180   	fcall	clear_ram0
  1440  0018                     end_of_initialization:	
  1441                           ;End of C runtime variable initialization code
  1442                           
  1443  0018                     __end_of__initialization:
  1444  0018  0140               	movlb	0
  1445  0019  3183  2B40         	ljmp	_main	;jump to C main() function
  1446                           
  1447                           	psect	bssBANK0
  1448  0020                     __pbssBANK0:
  1449  0020                     _counter:
  1450  0020                     	ds	2
  1451  0022                     _check_sum:
  1452  0022                     	ds	2
  1453  0024                     _reset_pending:
  1454  0024                     	ds	1
  1455  0025                     _tx_data:
  1456  0025                     	ds	1
  1457  0026                     _rx_data:
  1458  0026                     	ds	1
  1459  0027                     _data_length:
  1460  0027                     	ds	1
  1461  0028                     _eusart1RxLastError:
  1462  0028                     	ds	1
  1463                           
  1464                           	psect	bssBANK1
  1465  00A0                     __pbssBANK1:
  1466  00A0                     _frame:
  1467  00A0                     	ds	73
  1468                           
  1469                           	psect	clrtext
  1470  033A                     clear_ram0:	
  1471                           ;	Called with FSR0 containing the base address, and
  1472                           ;	WREG with the size to clear
  1473                           
  1474  033A  0064               	clrwdt	;clear the watchdog before getting into this loop
  1475  033B                     clrloop0:
  1476  033B  0180               	clrf	0	;clear RAM location pointed to by FSR
  1477  033C  3101               	addfsr 0,1
  1478  033D  0B89               	decfsz	9,f	;Have we reached the end of clearing yet?
  1479  033E  2B3B               	goto	clrloop0	;have we reached the end yet?
  1480  033F  3400               	retlw	0	;all done for this memory range, return
  1481                           
  1482                           	psect	cstackCOMMON
  1483  0072                     __pcstackCOMMON:
  1484  0072                     ?_OSCILLATOR_Initialize:
  1485  0072                     ??_OSCILLATOR_Initialize:	
  1486                           ; 1 bytes @ 0x0
  1487                           
  1488  0072                     ?_WDT_Initialize:	
  1489                           ; 1 bytes @ 0x0
  1490                           
  1491  0072                     ??_WDT_Initialize:	
  1492                           ; 1 bytes @ 0x0
  1493                           
  1494  0072                     ?_EUSART1_Initialize:	
  1495                           ; 1 bytes @ 0x0
  1496                           
  1497  0072                     ?_BOOTLOADER_Initialize:	
  1498                           ; 1 bytes @ 0x0
  1499                           
  1500  0072                     ?_Check_Device_Reset:	
  1501                           ; 1 bytes @ 0x0
  1502                           
  1503  0072                     ??_Check_Device_Reset:	
  1504                           ; 1 bytes @ 0x0
  1505                           
  1506  0072                     ?_EUSART1_Read:	
  1507                           ; 1 bytes @ 0x0
  1508                           
  1509  0072                     ??_EUSART1_Read:	
  1510                           ; 1 bytes @ 0x0
  1511                           
  1512  0072                     ?_ProcessBootBuffer:	
  1513                           ; 1 bytes @ 0x0
  1514                           
  1515  0072                     ?_EUSART1_Write:	
  1516                           ; 1 bytes @ 0x0
  1517                           
  1518  0072                     ??_EUSART1_Write:	
  1519                           ; 1 bytes @ 0x0
  1520                           
  1521  0072                     ?_EUSART1_SetFramingErrorHandler:	
  1522                           ; 1 bytes @ 0x0
  1523                           
  1524  0072                     ?_EUSART1_SetOverrunErrorHandler:	
  1525                           ; 1 bytes @ 0x0
  1526                           
  1527  0072                     ?_EUSART1_SetErrorHandler:	
  1528                           ; 1 bytes @ 0x0
  1529                           
  1530  0072                     ?_Bootload_Required:	
  1531                           ; 1 bytes @ 0x0
  1532                           
  1533  0072                     ??_Bootload_Required:	
  1534                           ; 1 bytes @ 0x0
  1535                           
  1536  0072                     ?_Get_Version_Data:	
  1537                           ; 1 bytes @ 0x0
  1538                           
  1539  0072                     ??_Get_Version_Data:	
  1540                           ; 1 bytes @ 0x0
  1541                           
  1542  0072                     ?_Write_Flash:	
  1543                           ; 1 bytes @ 0x0
  1544                           
  1545  0072                     ??_Write_Flash:	
  1546                           ; 1 bytes @ 0x0
  1547                           
  1548  0072                     ?_Erase_Flash:	
  1549                           ; 1 bytes @ 0x0
  1550                           
  1551  0072                     ??_Erase_Flash:	
  1552                           ; 1 bytes @ 0x0
  1553                           
  1554  0072                     ?_Read_Config:	
  1555                           ; 1 bytes @ 0x0
  1556                           
  1557  0072                     ??_Read_Config:	
  1558                           ; 1 bytes @ 0x0
  1559                           
  1560  0072                     ?_Calc_Checksum:	
  1561                           ; 1 bytes @ 0x0
  1562                           
  1563  0072                     ??_Calc_Checksum:	
  1564                           ; 1 bytes @ 0x0
  1565                           
  1566  0072                     ?_StartWrite:	
  1567                           ; 1 bytes @ 0x0
  1568                           
  1569  0072                     ??_StartWrite:	
  1570                           ; 1 bytes @ 0x0
  1571                           
  1572  0072                     ?_PIN_MANAGER_Initialize:	
  1573                           ; 1 bytes @ 0x0
  1574                           
  1575  0072                     ??_PIN_MANAGER_Initialize:	
  1576                           ; 1 bytes @ 0x0
  1577                           
  1578  0072                     ?_SYSTEM_Initialize:	
  1579                           ; 1 bytes @ 0x0
  1580                           
  1581  0072                     ?_Run_Bootloader:	
  1582                           ; 1 bytes @ 0x0
  1583                           
  1584  0072                     ?_main:	
  1585                           ; 1 bytes @ 0x0
  1586                           
  1587  0072                     EUSART1_Write@txData:	
  1588                           ; 1 bytes @ 0x0
  1589                           
  1590  0072                     EUSART1_SetFramingErrorHandler@interruptHandler:	
  1591                           ; 1 bytes @ 0x0
  1592                           
  1593  0072                     EUSART1_SetOverrunErrorHandler@interruptHandler:	
  1594                           ; 2 bytes @ 0x0
  1595                           
  1596  0072                     EUSART1_SetErrorHandler@interruptHandler:	
  1597                           ; 2 bytes @ 0x0
  1598                           
  1599                           
  1600                           ; 2 bytes @ 0x0
  1601  0072                     	ds	1
  1602  0073                     Bootload_Required@i:
  1603  0073                     Get_Version_Data@i:	
  1604                           ; 1 bytes @ 0x1
  1605                           
  1606  0073                     Erase_Flash@i:	
  1607                           ; 1 bytes @ 0x1
  1608                           
  1609                           
  1610                           ; 2 bytes @ 0x1
  1611  0073                     	ds	1
  1612  0074                     ??_EUSART1_Initialize:
  1613  0074                     ??_EUSART1_SetFramingErrorHandler:	
  1614                           ; 1 bytes @ 0x2
  1615                           
  1616  0074                     ??_EUSART1_SetOverrunErrorHandler:	
  1617                           ; 1 bytes @ 0x2
  1618                           
  1619  0074                     ??_EUSART1_SetErrorHandler:	
  1620                           ; 1 bytes @ 0x2
  1621                           
  1622  0074                     Read_Config@i:	
  1623                           ; 1 bytes @ 0x2
  1624                           
  1625  0074                     Write_Flash@i:	
  1626                           ; 1 bytes @ 0x2
  1627                           
  1628                           
  1629                           ; 2 bytes @ 0x2
  1630  0074                     	ds	1
  1631  0075                     Calc_Checksum@i:
  1632                           
  1633                           ; 2 bytes @ 0x3
  1634  0075                     	ds	2
  1635  0077                     ??_ProcessBootBuffer:
  1636                           
  1637                           ; 1 bytes @ 0x5
  1638  0077                     	ds	2
  1639  0079                     ProcessBootBuffer@len:
  1640                           
  1641                           ; 1 bytes @ 0x7
  1642  0079                     	ds	1
  1643  007A                     ??_Run_Bootloader:
  1644                           
  1645                           ; 1 bytes @ 0x8
  1646  007A                     	ds	1
  1647  007B                     Run_Bootloader@ch:
  1648                           
  1649                           ; 1 bytes @ 0x9
  1650  007B                     	ds	1
  1651  007C                     Run_Bootloader@msg_length:
  1652                           
  1653                           ; 1 bytes @ 0xA
  1654  007C                     	ds	1
  1655  007D                     Run_Bootloader@index:
  1656                           
  1657                           ; 1 bytes @ 0xB
  1658  007D                     	ds	1
  1659  007E                     ??_BOOTLOADER_Initialize:
  1660  007E                     ??_SYSTEM_Initialize:	
  1661                           ; 1 bytes @ 0xC
  1662                           
  1663  007E                     ??_main:	
  1664                           ; 1 bytes @ 0xC
  1665                           
  1666                           
  1667                           	psect	maintext
  1668  0340                     __pmaintext:	
  1669                           ; 1 bytes @ 0xC
  1670 ;;
  1671 ;;Main: autosize = 0, tempsize = 0, incstack = 0, save=0
  1672 ;;
  1673 ;; *************** function _main *****************
  1674 ;; Defined at:
  1675 ;;		line 49 in file "main.c"
  1676 ;; Parameters:    Size  Location     Type
  1677 ;;		None
  1678 ;; Auto vars:     Size  Location     Type
  1679 ;;		None
  1680 ;; Return value:  Size  Location     Type
  1681 ;;                  1    wreg      void 
  1682 ;; Registers used:
  1683 ;;		wreg, fsr0l, fsr0h, fsr1l, fsr1h, status,2, status,0, pclath, cstack
  1684 ;; Tracked objects:
  1685 ;;		On entry : B3F/0
  1686 ;;		On exit  : 0/0
  1687 ;;		Unchanged: 0/0
  1688 ;; Data sizes:     COMMON   BANK0   BANK1   BANK2   BANK3   BANK4   BANK5   BANK6
  1689 ;;      Params:         0       0       0       0       0       0       0       0
  1690 ;;      Locals:         0       0       0       0       0       0       0       0
  1691 ;;      Temps:          0       0       0       0       0       0       0       0
  1692 ;;      Totals:         0       0       0       0       0       0       0       0
  1693 ;;Total ram usage:        0 bytes
  1694 ;; Hardware stack levels required when called: 6
  1695 ;; This function calls:
  1696 ;;		_SYSTEM_Initialize
  1697 ;; This function is called by:
  1698 ;;		Startup code after reset
  1699 ;; This function uses a non-reentrant model
  1700 ;;
  1701                           
  1702                           
  1703                           ;psect for function _main
  1704  0340                     _main:
  1705  0340                     l1718:	
  1706                           ;incstack = 0
  1707                           ; Regs used in _main: [wreg-fsr1h+status,2+status,0+pclath+cstack]
  1708                           
  1709                           
  1710                           ;main.c: 52:     SYSTEM_Initialize();
  1711  0340  3182  22FF  3183   	fcall	_SYSTEM_Initialize
  1712  0343                     l379:	
  1713                           ;main.c: 69:     while (1)
  1714                           
  1715  0343                     l380:	
  1716                           ;main.c: 70:     {;main.c: 72:     }
  1717                           
  1718  0343  2B43               	goto	l379
  1719  0344  3180  2806         	ljmp	start
  1720  0346                     __end_of_main:
  1721                           
  1722                           	psect	text1
  1723  02FF                     __ptext1:	
  1724 ;; *************** function _SYSTEM_Initialize *****************
  1725 ;; Defined at:
  1726 ;;		line 50 in file "mcc_generated_files/mcc.c"
  1727 ;; Parameters:    Size  Location     Type
  1728 ;;		None
  1729 ;; Auto vars:     Size  Location     Type
  1730 ;;		None
  1731 ;; Return value:  Size  Location     Type
  1732 ;;                  1    wreg      void 
  1733 ;; Registers used:
  1734 ;;		wreg, fsr0l, fsr0h, fsr1l, fsr1h, status,2, status,0, pclath, cstack
  1735 ;; Tracked objects:
  1736 ;;		On entry : 0/0
  1737 ;;		On exit  : 0/0
  1738 ;;		Unchanged: 0/0
  1739 ;; Data sizes:     COMMON   BANK0   BANK1   BANK2   BANK3   BANK4   BANK5   BANK6
  1740 ;;      Params:         0       0       0       0       0       0       0       0
  1741 ;;      Locals:         0       0       0       0       0       0       0       0
  1742 ;;      Temps:          0       0       0       0       0       0       0       0
  1743 ;;      Totals:         0       0       0       0       0       0       0       0
  1744 ;;Total ram usage:        0 bytes
  1745 ;; Hardware stack levels used: 1
  1746 ;; Hardware stack levels required when called: 5
  1747 ;; This function calls:
  1748 ;;		_BOOTLOADER_Initialize
  1749 ;;		_EUSART1_Initialize
  1750 ;;		_OSCILLATOR_Initialize
  1751 ;;		_PIN_MANAGER_Initialize
  1752 ;;		_WDT_Initialize
  1753 ;; This function is called by:
  1754 ;;		_main
  1755 ;; This function uses a non-reentrant model
  1756 ;;
  1757                           
  1758                           
  1759                           ;psect for function _SYSTEM_Initialize
  1760  02FF                     _SYSTEM_Initialize:
  1761  02FF                     l1710:	
  1762                           ;incstack = 0
  1763                           ; Regs used in _SYSTEM_Initialize: [wreg-fsr1h+status,2+status,0+pclath+cstack]
  1764                           
  1765                           
  1766                           ;mcc_generated_files/mcc.c: 53:     PIN_MANAGER_Initialize();
  1767  02FF  3182  2272  3182   	fcall	_PIN_MANAGER_Initialize
  1768                           
  1769                           ;mcc_generated_files/mcc.c: 54:     OSCILLATOR_Initialize();
  1770  0302  3183  2346  3182   	fcall	_OSCILLATOR_Initialize
  1771  0305                     l1712:
  1772                           
  1773                           ;mcc_generated_files/mcc.c: 55:     WDT_Initialize();
  1774  0305  3183  235E  3182   	fcall	_WDT_Initialize
  1775  0308                     l1714:
  1776                           
  1777                           ;mcc_generated_files/mcc.c: 56:     EUSART1_Initialize();
  1778  0308  3182  22C6  3182   	fcall	_EUSART1_Initialize
  1779  030B                     l1716:
  1780                           
  1781                           ;mcc_generated_files/mcc.c: 57:     BOOTLOADER_Initialize();
  1782  030B  3182  22E9  3182   	fcall	_BOOTLOADER_Initialize
  1783  030E                     l73:
  1784  030E  0008               	return
  1785  030F                     __end_of_SYSTEM_Initialize:
  1786                           
  1787                           	psect	text2
  1788  035E                     __ptext2:	
  1789 ;; *************** function _WDT_Initialize *****************
  1790 ;; Defined at:
  1791 ;;		line 70 in file "mcc_generated_files/mcc.c"
  1792 ;; Parameters:    Size  Location     Type
  1793 ;;		None
  1794 ;; Auto vars:     Size  Location     Type
  1795 ;;		None
  1796 ;; Return value:  Size  Location     Type
  1797 ;;                  1    wreg      void 
  1798 ;; Registers used:
  1799 ;;		status,2
  1800 ;; Tracked objects:
  1801 ;;		On entry : 0/0
  1802 ;;		On exit  : 0/0
  1803 ;;		Unchanged: 0/0
  1804 ;; Data sizes:     COMMON   BANK0   BANK1   BANK2   BANK3   BANK4   BANK5   BANK6
  1805 ;;      Params:         0       0       0       0       0       0       0       0
  1806 ;;      Locals:         0       0       0       0       0       0       0       0
  1807 ;;      Temps:          0       0       0       0       0       0       0       0
  1808 ;;      Totals:         0       0       0       0       0       0       0       0
  1809 ;;Total ram usage:        0 bytes
  1810 ;; Hardware stack levels used: 1
  1811 ;; This function calls:
  1812 ;;		Nothing
  1813 ;; This function is called by:
  1814 ;;		_SYSTEM_Initialize
  1815 ;; This function uses a non-reentrant model
  1816 ;;
  1817                           
  1818                           
  1819                           ;psect for function _WDT_Initialize
  1820  035E                     _WDT_Initialize:
  1821  035E                     l1220:	
  1822                           ;incstack = 0
  1823                           ; Regs used in _WDT_Initialize: [status,2]
  1824                           
  1825                           
  1826                           ;mcc_generated_files/mcc.c: 73:     WDTCON = 0x00;
  1827  035E  0150               	movlb	16	; select bank16
  1828  035F  018C               	clrf	12	;volatile
  1829  0360                     l79:
  1830  0360  0008               	return
  1831  0361                     __end_of_WDT_Initialize:
  1832                           
  1833                           	psect	text3
  1834  0272                     __ptext3:	
  1835 ;; *************** function _PIN_MANAGER_Initialize *****************
  1836 ;; Defined at:
  1837 ;;		line 55 in file "mcc_generated_files/pin_manager.c"
  1838 ;; Parameters:    Size  Location     Type
  1839 ;;		None
  1840 ;; Auto vars:     Size  Location     Type
  1841 ;;		None
  1842 ;; Return value:  Size  Location     Type
  1843 ;;                  1    wreg      void 
  1844 ;; Registers used:
  1845 ;;		wreg, status,2
  1846 ;; Tracked objects:
  1847 ;;		On entry : 0/0
  1848 ;;		On exit  : 0/0
  1849 ;;		Unchanged: 0/0
  1850 ;; Data sizes:     COMMON   BANK0   BANK1   BANK2   BANK3   BANK4   BANK5   BANK6
  1851 ;;      Params:         0       0       0       0       0       0       0       0
  1852 ;;      Locals:         0       0       0       0       0       0       0       0
  1853 ;;      Temps:          0       0       0       0       0       0       0       0
  1854 ;;      Totals:         0       0       0       0       0       0       0       0
  1855 ;;Total ram usage:        0 bytes
  1856 ;; Hardware stack levels used: 1
  1857 ;; This function calls:
  1858 ;;		Nothing
  1859 ;; This function is called by:
  1860 ;;		_SYSTEM_Initialize
  1861 ;; This function uses a non-reentrant model
  1862 ;;
  1863                           
  1864                           
  1865                           ;psect for function _PIN_MANAGER_Initialize
  1866  0272                     _PIN_MANAGER_Initialize:
  1867  0272                     l1192:	
  1868                           ;incstack = 0
  1869                           ; Regs used in _PIN_MANAGER_Initialize: [wreg+status,2]
  1870                           
  1871                           
  1872                           ;mcc_generated_files/pin_manager.c: 60:     LATA = 0x00;
  1873  0272  0140               	movlb	0	; select bank0
  1874  0273  0198               	clrf	24	;volatile
  1875                           
  1876                           ;mcc_generated_files/pin_manager.c: 61:     LATB = 0x00;
  1877  0274  0199               	clrf	25	;volatile
  1878                           
  1879                           ;mcc_generated_files/pin_manager.c: 62:     LATC = 0x00;
  1880  0275  019A               	clrf	26	;volatile
  1881  0276                     l1194:
  1882                           
  1883                           ;mcc_generated_files/pin_manager.c: 67:     TRISA = 0x3F;
  1884  0276  303F               	movlw	63
  1885  0277  0092               	movwf	18	;volatile
  1886  0278                     l1196:
  1887                           
  1888                           ;mcc_generated_files/pin_manager.c: 68:     TRISB = 0xF0;
  1889  0278  30F0               	movlw	240
  1890  0279  0093               	movwf	19	;volatile
  1891  027A                     l1198:
  1892                           
  1893                           ;mcc_generated_files/pin_manager.c: 69:     TRISC = 0xFE;
  1894  027A  30FE               	movlw	254
  1895  027B  0094               	movwf	20	;volatile
  1896  027C                     l1200:
  1897                           
  1898                           ;mcc_generated_files/pin_manager.c: 74:     ANSELC = 0xF8;
  1899  027C  30F8               	movlw	248
  1900  027D  017E               	movlb	62	; select bank62
  1901  027E  00CE               	movwf	78	;volatile
  1902  027F                     l1202:
  1903                           
  1904                           ;mcc_generated_files/pin_manager.c: 75:     ANSELB = 0xF0;
  1905  027F  30F0               	movlw	240
  1906  0280  00C3               	movwf	67	;volatile
  1907  0281                     l1204:
  1908                           
  1909                           ;mcc_generated_files/pin_manager.c: 76:     ANSELA = 0x33;
  1910  0281  3033               	movlw	51
  1911  0282  00B8               	movwf	56	;volatile
  1912                           
  1913                           ;mcc_generated_files/pin_manager.c: 81:     WPUB = 0x00;
  1914  0283  01C4               	clrf	68	;volatile
  1915                           
  1916                           ;mcc_generated_files/pin_manager.c: 82:     WPUA = 0x00;
  1917  0284  01B9               	clrf	57	;volatile
  1918  0285                     l1206:
  1919                           
  1920                           ;mcc_generated_files/pin_manager.c: 83:     WPUC = 0x04;
  1921  0285  3004               	movlw	4
  1922  0286  00CF               	movwf	79	;volatile
  1923  0287                     l1208:
  1924                           
  1925                           ;mcc_generated_files/pin_manager.c: 88:     ODCONA = 0x00;
  1926  0287  01BA               	clrf	58	;volatile
  1927  0288                     l1210:
  1928                           
  1929                           ;mcc_generated_files/pin_manager.c: 89:     ODCONB = 0x00;
  1930  0288  01C5               	clrf	69	;volatile
  1931  0289                     l1212:
  1932                           
  1933                           ;mcc_generated_files/pin_manager.c: 90:     ODCONC = 0x00;
  1934  0289  01D0               	clrf	80	;volatile
  1935                           
  1936                           ;mcc_generated_files/pin_manager.c: 95:     SLRCONA = 0x37;
  1937  028A  3037               	movlw	55
  1938  028B  00BB               	movwf	59	;volatile
  1939                           
  1940                           ;mcc_generated_files/pin_manager.c: 96:     SLRCONB = 0xF0;
  1941  028C  30F0               	movlw	240
  1942  028D  00C6               	movwf	70	;volatile
  1943                           
  1944                           ;mcc_generated_files/pin_manager.c: 97:     SLRCONC = 0xFF;
  1945  028E  30FF               	movlw	255
  1946  028F  00D1               	movwf	81	;volatile
  1947                           
  1948                           ;mcc_generated_files/pin_manager.c: 102:     INLVLA = 0x3F;
  1949  0290  303F               	movlw	63
  1950  0291  00BC               	movwf	60	;volatile
  1951                           
  1952                           ;mcc_generated_files/pin_manager.c: 103:     INLVLB = 0xF0;
  1953  0292  30F0               	movlw	240
  1954  0293  00C7               	movwf	71	;volatile
  1955                           
  1956                           ;mcc_generated_files/pin_manager.c: 104:     INLVLC = 0xFF;
  1957  0294  30FF               	movlw	255
  1958  0295  00D2               	movwf	82	;volatile
  1959                           
  1960                           ;mcc_generated_files/pin_manager.c: 113:     RC0PPS = 0x05;
  1961  0296  3005               	movlw	5
  1962  0297  00A0               	movwf	32	;volatile
  1963                           
  1964                           ;mcc_generated_files/pin_manager.c: 114:     RX1PPS = 0x11;
  1965  0298  3011               	movlw	17
  1966  0299  017D               	movlb	61	; select bank61
  1967  029A  00CB               	movwf	75	;volatile
  1968  029B                     l49:
  1969  029B  0008               	return
  1970  029C                     __end_of_PIN_MANAGER_Initialize:
  1971                           
  1972                           	psect	text4
  1973  0346                     __ptext4:	
  1974 ;; *************** function _OSCILLATOR_Initialize *****************
  1975 ;; Defined at:
  1976 ;;		line 60 in file "mcc_generated_files/mcc.c"
  1977 ;; Parameters:    Size  Location     Type
  1978 ;;		None
  1979 ;; Auto vars:     Size  Location     Type
  1980 ;;		None
  1981 ;; Return value:  Size  Location     Type
  1982 ;;                  1    wreg      void 
  1983 ;; Registers used:
  1984 ;;		wreg, status,2
  1985 ;; Tracked objects:
  1986 ;;		On entry : 0/0
  1987 ;;		On exit  : 0/0
  1988 ;;		Unchanged: 0/0
  1989 ;; Data sizes:     COMMON   BANK0   BANK1   BANK2   BANK3   BANK4   BANK5   BANK6
  1990 ;;      Params:         0       0       0       0       0       0       0       0
  1991 ;;      Locals:         0       0       0       0       0       0       0       0
  1992 ;;      Temps:          0       0       0       0       0       0       0       0
  1993 ;;      Totals:         0       0       0       0       0       0       0       0
  1994 ;;Total ram usage:        0 bytes
  1995 ;; Hardware stack levels used: 1
  1996 ;; This function calls:
  1997 ;;		Nothing
  1998 ;; This function is called by:
  1999 ;;		_SYSTEM_Initialize
  2000 ;; This function uses a non-reentrant model
  2001 ;;
  2002                           
  2003                           
  2004                           ;psect for function _OSCILLATOR_Initialize
  2005  0346                     _OSCILLATOR_Initialize:
  2006  0346                     l1214:	
  2007                           ;incstack = 0
  2008                           ; Regs used in _OSCILLATOR_Initialize: [wreg+status,2]
  2009                           
  2010                           
  2011                           ;mcc_generated_files/mcc.c: 63:     OSCEN = 0x00;
  2012  0346  0151               	movlb	17	; select bank17
  2013  0347  0191               	clrf	17	;volatile
  2014  0348                     l1216:
  2015                           
  2016                           ;mcc_generated_files/mcc.c: 65:     OSCFRQ = 0x05;
  2017  0348  3005               	movlw	5
  2018  0349  0093               	movwf	19	;volatile
  2019  034A                     l1218:
  2020                           
  2021                           ;mcc_generated_files/mcc.c: 67:     OSCTUNE = 0x00;
  2022  034A  0192               	clrf	18	;volatile
  2023  034B                     l76:
  2024  034B  0008               	return
  2025  034C                     __end_of_OSCILLATOR_Initialize:
  2026                           
  2027                           	psect	text5
  2028  02C6                     __ptext5:	
  2029 ;; *************** function _EUSART1_Initialize *****************
  2030 ;; Defined at:
  2031 ;;		line 66 in file "mcc_generated_files/eusart1.c"
  2032 ;; Parameters:    Size  Location     Type
  2033 ;;		None
  2034 ;; Auto vars:     Size  Location     Type
  2035 ;;		None
  2036 ;; Return value:  Size  Location     Type
  2037 ;;                  1    wreg      void 
  2038 ;; Registers used:
  2039 ;;		wreg, status,2, status,0, pclath, cstack
  2040 ;; Tracked objects:
  2041 ;;		On entry : 0/0
  2042 ;;		On exit  : 0/0
  2043 ;;		Unchanged: 0/0
  2044 ;; Data sizes:     COMMON   BANK0   BANK1   BANK2   BANK3   BANK4   BANK5   BANK6
  2045 ;;      Params:         0       0       0       0       0       0       0       0
  2046 ;;      Locals:         0       0       0       0       0       0       0       0
  2047 ;;      Temps:          0       0       0       0       0       0       0       0
  2048 ;;      Totals:         0       0       0       0       0       0       0       0
  2049 ;;Total ram usage:        0 bytes
  2050 ;; Hardware stack levels used: 1
  2051 ;; Hardware stack levels required when called: 1
  2052 ;; This function calls:
  2053 ;;		_EUSART1_SetErrorHandler
  2054 ;;		_EUSART1_SetFramingErrorHandler
  2055 ;;		_EUSART1_SetOverrunErrorHandler
  2056 ;; This function is called by:
  2057 ;;		_SYSTEM_Initialize
  2058 ;; This function uses a non-reentrant model
  2059 ;;
  2060                           
  2061                           
  2062                           ;psect for function _EUSART1_Initialize
  2063  02C6                     _EUSART1_Initialize:
  2064  02C6                     l1690:	
  2065                           ;incstack = 0
  2066                           ; Regs used in _EUSART1_Initialize: [wreg+status,2+status,0+pclath+cstack]
  2067                           
  2068                           
  2069                           ;mcc_generated_files/eusart1.c: 71:     BAUD1CON = 0x08;
  2070  02C6  3008               	movlw	8
  2071  02C7  0142               	movlb	2	; select bank2
  2072  02C8  009F               	movwf	31	;volatile
  2073                           
  2074                           ;mcc_generated_files/eusart1.c: 74:     RC1STA = 0x90;
  2075  02C9  3090               	movlw	144
  2076  02CA  009D               	movwf	29	;volatile
  2077                           
  2078                           ;mcc_generated_files/eusart1.c: 77:     TX1STA = 0x24;
  2079  02CB  3024               	movlw	36
  2080  02CC  009E               	movwf	30	;volatile
  2081                           
  2082                           ;mcc_generated_files/eusart1.c: 80:     SP1BRGL = 0x40;
  2083  02CD  3040               	movlw	64
  2084  02CE  009B               	movwf	27	;volatile
  2085                           
  2086                           ;mcc_generated_files/eusart1.c: 83:     SP1BRGH = 0x03;
  2087  02CF  3003               	movlw	3
  2088  02D0  009C               	movwf	28	;volatile
  2089  02D1                     l1692:
  2090                           
  2091                           ;mcc_generated_files/eusart1.c: 86:     EUSART1_SetFramingErrorHandler(EUSART1_DefaultFr
      +                          amingErrorHandler);
  2092  02D1  3000               	movlw	0
  2093  02D2  00F2               	movwf	EUSART1_SetFramingErrorHandler@interruptHandler
  2094  02D3  3000               	movlw	0
  2095  02D4  00F3               	movwf	EUSART1_SetFramingErrorHandler@interruptHandler+1
  2096  02D5  3183  2352  3182   	fcall	_EUSART1_SetFramingErrorHandler
  2097  02D8                     l1694:
  2098                           
  2099                           ;mcc_generated_files/eusart1.c: 87:     EUSART1_SetOverrunErrorHandler(EUSART1_DefaultOv
      +                          errunErrorHandler);
  2100  02D8  3000               	movlw	0
  2101  02D9  00F2               	movwf	EUSART1_SetOverrunErrorHandler@interruptHandler
  2102  02DA  3000               	movlw	0
  2103  02DB  00F3               	movwf	EUSART1_SetOverrunErrorHandler@interruptHandler+1
  2104  02DC  3183  234C  3182   	fcall	_EUSART1_SetOverrunErrorHandler
  2105  02DF                     l1696:
  2106                           
  2107                           ;mcc_generated_files/eusart1.c: 88:     EUSART1_SetErrorHandler(EUSART1_DefaultErrorHand
      +                          ler);
  2108  02DF  3000               	movlw	0
  2109  02E0  00F2               	movwf	EUSART1_SetErrorHandler@interruptHandler
  2110  02E1  3000               	movlw	0
  2111  02E2  00F3               	movwf	EUSART1_SetErrorHandler@interruptHandler+1
  2112  02E3  3183  2358  3182   	fcall	_EUSART1_SetErrorHandler
  2113  02E6                     l1698:
  2114                           
  2115                           ;mcc_generated_files/eusart1.c: 90:     eusart1RxLastError.status = 0;
  2116  02E6  0140               	movlb	0	; select bank0
  2117  02E7  01A8               	clrf	_eusart1RxLastError	;volatile
  2118  02E8                     l206:
  2119  02E8  0008               	return
  2120  02E9                     __end_of_EUSART1_Initialize:
  2121                           
  2122                           	psect	text6
  2123  034C                     __ptext6:	
  2124 ;; *************** function _EUSART1_SetOverrunErrorHandler *****************
  2125 ;; Defined at:
  2126 ;;		line 161 in file "mcc_generated_files/eusart1.c"
  2127 ;; Parameters:    Size  Location     Type
  2128 ;;  interruptHan    2    0[COMMON] PTR FTN()void 
  2129 ;;		 -> EUSART1_DefaultOverrunErrorHandler(1), 
  2130 ;; Auto vars:     Size  Location     Type
  2131 ;;		None
  2132 ;; Return value:  Size  Location     Type
  2133 ;;                  1    wreg      void 
  2134 ;; Registers used:
  2135 ;;		wreg
  2136 ;; Tracked objects:
  2137 ;;		On entry : 0/0
  2138 ;;		On exit  : 0/0
  2139 ;;		Unchanged: 0/0
  2140 ;; Data sizes:     COMMON   BANK0   BANK1   BANK2   BANK3   BANK4   BANK5   BANK6
  2141 ;;      Params:         2       0       0       0       0       0       0       0
  2142 ;;      Locals:         0       0       0       0       0       0       0       0
  2143 ;;      Temps:          0       0       0       0       0       0       0       0
  2144 ;;      Totals:         2       0       0       0       0       0       0       0
  2145 ;;Total ram usage:        2 bytes
  2146 ;; Hardware stack levels used: 1
  2147 ;; This function calls:
  2148 ;;		Nothing
  2149 ;; This function is called by:
  2150 ;;		_EUSART1_Initialize
  2151 ;; This function uses a non-reentrant model
  2152 ;;
  2153                           
  2154                           
  2155                           ;psect for function _EUSART1_SetOverrunErrorHandler
  2156  034C                     _EUSART1_SetOverrunErrorHandler:
  2157  034C                     l1686:	
  2158                           ;incstack = 0
  2159                           ; Regs used in _EUSART1_SetOverrunErrorHandler: [wreg]
  2160                           
  2161                           
  2162                           ;mcc_generated_files/eusart1.c: 162:     EUSART1_OverrunErrorHandler = interruptHandler;
  2163  034C  0873               	movf	EUSART1_SetOverrunErrorHandler@interruptHandler+1,w
  2164  034D  0140               	movlb	0	; select bank0
  2165  034E  00AC               	movwf	_EUSART1_OverrunErrorHandler+1
  2166  034F  0872               	movf	EUSART1_SetOverrunErrorHandler@interruptHandler,w
  2167  0350  00AB               	movwf	_EUSART1_OverrunErrorHandler
  2168  0351                     l248:
  2169  0351  0008               	return
  2170  0352                     __end_of_EUSART1_SetOverrunErrorHandler:
  2171                           
  2172                           	psect	text7
  2173  0352                     __ptext7:	
  2174 ;; *************** function _EUSART1_SetFramingErrorHandler *****************
  2175 ;; Defined at:
  2176 ;;		line 157 in file "mcc_generated_files/eusart1.c"
  2177 ;; Parameters:    Size  Location     Type
  2178 ;;  interruptHan    2    0[COMMON] PTR FTN()void 
  2179 ;;		 -> EUSART1_DefaultFramingErrorHandler(1), 
  2180 ;; Auto vars:     Size  Location     Type
  2181 ;;		None
  2182 ;; Return value:  Size  Location     Type
  2183 ;;                  1    wreg      void 
  2184 ;; Registers used:
  2185 ;;		wreg
  2186 ;; Tracked objects:
  2187 ;;		On entry : 0/0
  2188 ;;		On exit  : 0/0
  2189 ;;		Unchanged: 0/0
  2190 ;; Data sizes:     COMMON   BANK0   BANK1   BANK2   BANK3   BANK4   BANK5   BANK6
  2191 ;;      Params:         2       0       0       0       0       0       0       0
  2192 ;;      Locals:         0       0       0       0       0       0       0       0
  2193 ;;      Temps:          0       0       0       0       0       0       0       0
  2194 ;;      Totals:         2       0       0       0       0       0       0       0
  2195 ;;Total ram usage:        2 bytes
  2196 ;; Hardware stack levels used: 1
  2197 ;; This function calls:
  2198 ;;		Nothing
  2199 ;; This function is called by:
  2200 ;;		_EUSART1_Initialize
  2201 ;; This function uses a non-reentrant model
  2202 ;;
  2203                           
  2204                           
  2205                           ;psect for function _EUSART1_SetFramingErrorHandler
  2206  0352                     _EUSART1_SetFramingErrorHandler:
  2207  0352                     l1684:	
  2208                           ;incstack = 0
  2209                           ; Regs used in _EUSART1_SetFramingErrorHandler: [wreg]
  2210                           
  2211                           
  2212                           ;mcc_generated_files/eusart1.c: 158:     EUSART1_FramingErrorHandler = interruptHandler;
  2213  0352  0873               	movf	EUSART1_SetFramingErrorHandler@interruptHandler+1,w
  2214  0353  0140               	movlb	0	; select bank0
  2215  0354  00AE               	movwf	_EUSART1_FramingErrorHandler+1
  2216  0355  0872               	movf	EUSART1_SetFramingErrorHandler@interruptHandler,w
  2217  0356  00AD               	movwf	_EUSART1_FramingErrorHandler
  2218  0357                     l245:
  2219  0357  0008               	return
  2220  0358                     __end_of_EUSART1_SetFramingErrorHandler:
  2221                           
  2222                           	psect	text8
  2223  0358                     __ptext8:	
  2224 ;; *************** function _EUSART1_SetErrorHandler *****************
  2225 ;; Defined at:
  2226 ;;		line 165 in file "mcc_generated_files/eusart1.c"
  2227 ;; Parameters:    Size  Location     Type
  2228 ;;  interruptHan    2    0[COMMON] PTR FTN()void 
  2229 ;;		 -> EUSART1_DefaultErrorHandler(1), 
  2230 ;; Auto vars:     Size  Location     Type
  2231 ;;		None
  2232 ;; Return value:  Size  Location     Type
  2233 ;;                  1    wreg      void 
  2234 ;; Registers used:
  2235 ;;		wreg
  2236 ;; Tracked objects:
  2237 ;;		On entry : 0/0
  2238 ;;		On exit  : 0/0
  2239 ;;		Unchanged: 0/0
  2240 ;; Data sizes:     COMMON   BANK0   BANK1   BANK2   BANK3   BANK4   BANK5   BANK6
  2241 ;;      Params:         2       0       0       0       0       0       0       0
  2242 ;;      Locals:         0       0       0       0       0       0       0       0
  2243 ;;      Temps:          0       0       0       0       0       0       0       0
  2244 ;;      Totals:         2       0       0       0       0       0       0       0
  2245 ;;Total ram usage:        2 bytes
  2246 ;; Hardware stack levels used: 1
  2247 ;; This function calls:
  2248 ;;		Nothing
  2249 ;; This function is called by:
  2250 ;;		_EUSART1_Initialize
  2251 ;; This function uses a non-reentrant model
  2252 ;;
  2253                           
  2254                           
  2255                           ;psect for function _EUSART1_SetErrorHandler
  2256  0358                     _EUSART1_SetErrorHandler:
  2257  0358                     l1688:	
  2258                           ;incstack = 0
  2259                           ; Regs used in _EUSART1_SetErrorHandler: [wreg]
  2260                           
  2261                           
  2262                           ;mcc_generated_files/eusart1.c: 166:     EUSART1_ErrorHandler = interruptHandler;
  2263  0358  0873               	movf	EUSART1_SetErrorHandler@interruptHandler+1,w
  2264  0359  0140               	movlb	0	; select bank0
  2265  035A  00AA               	movwf	_EUSART1_ErrorHandler+1
  2266  035B  0872               	movf	EUSART1_SetErrorHandler@interruptHandler,w
  2267  035C  00A9               	movwf	_EUSART1_ErrorHandler
  2268  035D                     l251:
  2269  035D  0008               	return
  2270  035E                     __end_of_EUSART1_SetErrorHandler:
  2271                           
  2272                           	psect	text9
  2273  02E9                     __ptext9:	
  2274 ;; *************** function _BOOTLOADER_Initialize *****************
  2275 ;; Defined at:
  2276 ;;		line 160 in file "mcc_generated_files/pic16f1_bootload.c"
  2277 ;; Parameters:    Size  Location     Type
  2278 ;;		None
  2279 ;; Auto vars:     Size  Location     Type
  2280 ;;		None
  2281 ;; Return value:  Size  Location     Type
  2282 ;;                  1    wreg      void 
  2283 ;; Registers used:
  2284 ;;		wreg, fsr0l, fsr0h, fsr1l, fsr1h, status,2, status,0, pclath, cstack
  2285 ;; Tracked objects:
  2286 ;;		On entry : 0/0
  2287 ;;		On exit  : 0/0
  2288 ;;		Unchanged: 0/0
  2289 ;; Data sizes:     COMMON   BANK0   BANK1   BANK2   BANK3   BANK4   BANK5   BANK6
  2290 ;;      Params:         0       0       0       0       0       0       0       0
  2291 ;;      Locals:         0       0       0       0       0       0       0       0
  2292 ;;      Temps:          0       0       0       0       0       0       0       0
  2293 ;;      Totals:         0       0       0       0       0       0       0       0
  2294 ;;Total ram usage:        0 bytes
  2295 ;; Hardware stack levels used: 1
  2296 ;; Hardware stack levels required when called: 4
  2297 ;; This function calls:
  2298 ;;		_Bootload_Required
  2299 ;;		_Run_Bootloader
  2300 ;; This function is called by:
  2301 ;;		_SYSTEM_Initialize
  2302 ;; This function uses a non-reentrant model
  2303 ;;
  2304                           
  2305                           
  2306                           ;psect for function _BOOTLOADER_Initialize
  2307  02E9                     _BOOTLOADER_Initialize:
  2308  02E9                     l1700:	
  2309                           ;incstack = 0
  2310                           ; Regs used in _BOOTLOADER_Initialize: [wreg-fsr1h+status,2+status,0+pclath+cstack]
  2311                           
  2312                           
  2313                           ;mcc_generated_files/pic16f1_bootload.c: 162:     EE_Key_1 = 0;
  2314  02E9  0140               	movlb	0	; select bank0
  2315  02EA  01F0               	clrf	112
  2316                           
  2317                           ;mcc_generated_files/pic16f1_bootload.c: 163:     EE_Key_2 = 0;
  2318  02EB  01F1               	clrf	113
  2319  02EC                     l1702:
  2320                           
  2321                           ;mcc_generated_files/pic16f1_bootload.c: 164:     if (Bootload_Required () == 1)
  2322  02EC  3182  229C  3182   	fcall	_Bootload_Required
  2323  02EF  3A01               	xorlw	1
  2324  02F0  1D03               	skipz
  2325  02F1  2AF3               	goto	u631
  2326  02F2  2AF4               	goto	u630
  2327  02F3                     u631:
  2328  02F3  2AF7               	goto	l1706
  2329  02F4                     u630:
  2330  02F4                     l1704:
  2331                           
  2332                           ;mcc_generated_files/pic16f1_bootload.c: 165:     {;mcc_generated_files/pic16f1_bootload
      +                          .c: 166:         Run_Bootloader ();
  2333  02F4  3180  201B  3182   	fcall	_Run_Bootloader
  2334  02F7                     l1706:
  2335                           
  2336                           ;mcc_generated_files/pic16f1_bootload.c: 168:     STKPTR = 0x1F;
  2337  02F7  301F               	movlw	31
  2338  02F8  017F               	movlb	63	; select bank63
  2339  02F9  00ED               	movwf	109	;volsfr
  2340  02FA                     l1708:
  2341                           
  2342                           ;mcc_generated_files/pic16f1_bootload.c: 169:     BSR = 0;
  2343  02FA  0140               	movlb	0	; select bank0
  2344  02FB  0188               	clrf	8	;volatile
  2345  02FC  3184               	pagesel	1024	;# 
  2346  02FD  2C00               	goto	1024	;# 
  2347  02FE                     l309:
  2348  02FE  0008               	return
  2349  02FF                     __end_of_BOOTLOADER_Initialize:
  2350                           
  2351                           	psect	text10
  2352  001B                     __ptext10:	
  2353 ;; *************** function _Run_Bootloader *****************
  2354 ;; Defined at:
  2355 ;;		line 55 in file "mcc_generated_files/pic16f1_uart.c"
  2356 ;; Parameters:    Size  Location     Type
  2357 ;;		None
  2358 ;; Auto vars:     Size  Location     Type
  2359 ;;  ch              1    9[COMMON] unsigned char 
  2360 ;;  index           1   11[COMMON] unsigned char 
  2361 ;;  msg_length      1   10[COMMON] unsigned char 
  2362 ;; Return value:  Size  Location     Type
  2363 ;;                  1    wreg      void 
  2364 ;; Registers used:
  2365 ;;		wreg, fsr0l, fsr0h, fsr1l, fsr1h, status,2, status,0, pclath, cstack
  2366 ;; Tracked objects:
  2367 ;;		On entry : 0/0
  2368 ;;		On exit  : 0/0
  2369 ;;		Unchanged: 0/0
  2370 ;; Data sizes:     COMMON   BANK0   BANK1   BANK2   BANK3   BANK4   BANK5   BANK6
  2371 ;;      Params:         0       0       0       0       0       0       0       0
  2372 ;;      Locals:         3       0       0       0       0       0       0       0
  2373 ;;      Temps:          1       0       0       0       0       0       0       0
  2374 ;;      Totals:         4       0       0       0       0       0       0       0
  2375 ;;Total ram usage:        4 bytes
  2376 ;; Hardware stack levels used: 1
  2377 ;; Hardware stack levels required when called: 3
  2378 ;; This function calls:
  2379 ;;		_Check_Device_Reset
  2380 ;;		_EUSART1_Read
  2381 ;;		_EUSART1_Write
  2382 ;;		_ProcessBootBuffer
  2383 ;; This function is called by:
  2384 ;;		_BOOTLOADER_Initialize
  2385 ;; This function uses a non-reentrant model
  2386 ;;
  2387                           
  2388                           
  2389                           ;psect for function _Run_Bootloader
  2390  001B                     _Run_Bootloader:
  2391  001B                     l96:	
  2392                           ;incstack = 0
  2393                           ; Regs used in _Run_Bootloader: [wreg-fsr1h+status,2+status,0+pclath+cstack]
  2394                           ;mcc_generated_files/pic16f1_uart.c: 57:     uint8_t index;;mcc_generated_files/pic16f1_
      +                          uart.c: 58:     uint8_t msg_length;;mcc_generated_files/pic16f1_uart.c: 60:     while (1
      +                          )
  2395                           
  2396  001B                     l97:	
  2397                           ;mcc_generated_files/pic16f1_uart.c: 61:     {;mcc_generated_files/pic16f1_uart.c: 62:  
      +                                 while (TX1STAbits.TRMT == 0);
  2398                           
  2399  001B  0142               	movlb	2	; select bank2
  2400  001C  1C9E               	btfss	30,1	;volatile
  2401  001D  281F               	goto	u541
  2402  001E  2820               	goto	u540
  2403  001F                     u541:
  2404  001F  281B               	goto	l97
  2405  0020                     u540:
  2406  0020                     l1642:
  2407                           
  2408                           ;mcc_generated_files/pic16f1_uart.c: 64:         Check_Device_Reset ();
  2409  0020  3183  2332  3180   	fcall	_Check_Device_Reset
  2410  0023                     l1644:
  2411                           
  2412                           ;mcc_generated_files/pic16f1_uart.c: 69:         BAUD1CONbits.ABDEN = 1;
  2413  0023  0142               	movlb	2	; select bank2
  2414  0024  141F               	bsf	31,0	;volatile
  2415                           
  2416                           ;mcc_generated_files/pic16f1_uart.c: 70:         while (BAUD1CONbits.ABDEN == 1)
  2417  0025  282D               	goto	l100
  2418  0026                     l101:
  2419                           
  2420                           ;mcc_generated_files/pic16f1_uart.c: 71:         {;mcc_generated_files/pic16f1_uart.c: 7
      +                          2:             if (BAUD1CONbits.ABDOVF == 1)
  2421  0026  1F9F               	btfss	31,7	;volatile
  2422  0027  2829               	goto	u551
  2423  0028  282A               	goto	u550
  2424  0029                     u551:
  2425  0029  282D               	goto	l100
  2426  002A                     u550:
  2427  002A                     l1646:
  2428                           
  2429                           ;mcc_generated_files/pic16f1_uart.c: 73:             {;mcc_generated_files/pic16f1_uart.
      +                          c: 74:                 BAUD1CONbits.ABDEN = 0;
  2430  002A  101F               	bcf	31,0	;volatile
  2431                           
  2432                           ;mcc_generated_files/pic16f1_uart.c: 75:                 BAUD1CONbits.ABDOVF = 0;
  2433  002B  139F               	bcf	31,7	;volatile
  2434                           
  2435                           ;mcc_generated_files/pic16f1_uart.c: 76:                 BAUD1CONbits.ABDEN = 1;
  2436  002C  141F               	bsf	31,0	;volatile
  2437  002D                     l100:	
  2438                           ;mcc_generated_files/pic16f1_uart.c: 78:         }
  2439                           
  2440                           
  2441                           ;mcc_generated_files/pic16f1_uart.c: 70:         while (BAUD1CONbits.ABDEN == 1)
  2442  002D  181F               	btfsc	31,0	;volatile
  2443  002E  2830               	goto	u561
  2444  002F  2831               	goto	u560
  2445  0030                     u561:
  2446  0030  2826               	goto	l101
  2447  0031                     u560:
  2448  0031                     l1648:
  2449  0031  3183  230F  3180   	fcall	_EUSART1_Read
  2450  0034                     l1650:
  2451                           
  2452                           ;mcc_generated_files/pic16f1_uart.c: 85:         index = 0;
  2453  0034  01FD               	clrf	Run_Bootloader@index
  2454  0035                     l1652:
  2455                           
  2456                           ;mcc_generated_files/pic16f1_uart.c: 86:         msg_length = 9;
  2457  0035  3009               	movlw	9
  2458  0036  00FA               	movwf	??_Run_Bootloader
  2459  0037  087A               	movf	??_Run_Bootloader,w
  2460  0038  00FC               	movwf	Run_Bootloader@msg_length
  2461                           
  2462                           ;mcc_generated_files/pic16f1_uart.c: 87:         uint8_t ch;;mcc_generated_files/pic16f1
      +                          _uart.c: 89:         while (index < msg_length)
  2463  0039  2869               	goto	l1670
  2464  003A                     l1654:
  2465                           
  2466                           ;mcc_generated_files/pic16f1_uart.c: 90:         {;mcc_generated_files/pic16f1_uart.c: 9
      +                          1:             ch = EUSART1_Read();
  2467  003A  3183  230F  3180   	fcall	_EUSART1_Read
  2468  003D  00FA               	movwf	??_Run_Bootloader
  2469  003E  087A               	movf	??_Run_Bootloader,w
  2470  003F  00FB               	movwf	Run_Bootloader@ch
  2471  0040                     l1656:
  2472                           
  2473                           ;mcc_generated_files/pic16f1_uart.c: 92:             frame.buffer [index ++] = ch;
  2474  0040  087B               	movf	Run_Bootloader@ch,w
  2475  0041  00FA               	movwf	??_Run_Bootloader
  2476  0042  087D               	movf	Run_Bootloader@index,w
  2477  0043  3EA0               	addlw	(low (_frame| 0))& (0+255)
  2478  0044  0086               	movwf	6
  2479  0045  0187               	clrf	7
  2480  0046  087A               	movf	??_Run_Bootloader,w
  2481  0047  0081               	movwf	1
  2482  0048                     l1658:
  2483  0048  3001               	movlw	1
  2484  0049  00FA               	movwf	??_Run_Bootloader
  2485  004A  087A               	movf	??_Run_Bootloader,w
  2486  004B  07FD               	addwf	Run_Bootloader@index,f
  2487  004C                     l1660:
  2488                           
  2489                           ;mcc_generated_files/pic16f1_uart.c: 93:             if (index == 4)
  2490  004C  3004               	movlw	4
  2491  004D  067D               	xorwf	Run_Bootloader@index,w
  2492  004E  1D03               	btfss	3,2
  2493  004F  2851               	goto	u571
  2494  0050  2852               	goto	u570
  2495  0051                     u571:
  2496  0051  2869               	goto	l1670
  2497  0052                     u570:
  2498  0052                     l1662:
  2499                           
  2500                           ;mcc_generated_files/pic16f1_uart.c: 94:             {;mcc_generated_files/pic16f1_uart.
      +                          c: 95:                 if ((frame.command == 2)
  2501  0052  3002               	movlw	2
  2502  0053  0141               	movlb	1	; select bank1
  2503  0054  0620               	xorwf	_frame^(0+128),w
  2504  0055  1903               	btfsc	3,2
  2505  0056  2858               	goto	u581
  2506  0057  2859               	goto	u580
  2507  0058                     u581:
  2508  0058  2865               	goto	l1668
  2509  0059                     u580:
  2510  0059                     l1664:
  2511  0059  3005               	movlw	5
  2512  005A  0620               	xorwf	_frame^(0+128),w
  2513  005B  1903               	btfsc	3,2
  2514  005C  285E               	goto	u591
  2515  005D  285F               	goto	u590
  2516  005E                     u591:
  2517  005E  2865               	goto	l1668
  2518  005F                     u590:
  2519  005F                     l1666:
  2520  005F  3007               	movlw	7
  2521  0060  0620               	xorwf	_frame^(0+128),w
  2522  0061  1D03               	btfss	3,2
  2523  0062  2864               	goto	u601
  2524  0063  2865               	goto	u600
  2525  0064                     u601:
  2526  0064  2869               	goto	l1670
  2527  0065                     u600:
  2528  0065                     l1668:
  2529                           
  2530                           ;mcc_generated_files/pic16f1_uart.c: 98:                 {;mcc_generated_files/pic16f1_u
      +                          art.c: 99:                     msg_length += frame.data_length;
  2531  0065  0821               	movf	(_frame^(0+128)+1),w
  2532  0066  00FA               	movwf	??_Run_Bootloader
  2533  0067  087A               	movf	??_Run_Bootloader,w
  2534  0068  07FC               	addwf	Run_Bootloader@msg_length,f
  2535  0069                     l1670:
  2536                           
  2537                           ;mcc_generated_files/pic16f1_uart.c: 89:         while (index < msg_length)
  2538  0069  087C               	movf	Run_Bootloader@msg_length,w
  2539  006A  027D               	subwf	Run_Bootloader@index,w
  2540  006B  1C03               	skipc
  2541  006C  286E               	goto	u611
  2542  006D  286F               	goto	u610
  2543  006E                     u611:
  2544  006E  283A               	goto	l1654
  2545  006F                     u610:
  2546  006F                     l1672:
  2547                           
  2548                           ;mcc_generated_files/pic16f1_uart.c: 103:         msg_length = ProcessBootBuffer ();
  2549  006F  3180  208F  3180   	fcall	_ProcessBootBuffer
  2550  0072  00FA               	movwf	??_Run_Bootloader
  2551  0073  087A               	movf	??_Run_Bootloader,w
  2552  0074  00FC               	movwf	Run_Bootloader@msg_length
  2553  0075                     l1674:
  2554                           
  2555                           ;mcc_generated_files/pic16f1_uart.c: 107:         EUSART1_Write(0x55);
  2556  0075  3055               	movlw	85
  2557  0076  3183  231F  3180   	fcall	_EUSART1_Write
  2558  0079                     l1676:
  2559                           
  2560                           ;mcc_generated_files/pic16f1_uart.c: 108:         index = 0;
  2561  0079  01FD               	clrf	Run_Bootloader@index
  2562                           
  2563                           ;mcc_generated_files/pic16f1_uart.c: 109:         while (index < msg_length)
  2564  007A  2887               	goto	l1682
  2565  007B                     l1678:
  2566                           
  2567                           ;mcc_generated_files/pic16f1_uart.c: 110:         {;mcc_generated_files/pic16f1_uart.c: 
      +                          111:             EUSART1_Write (frame.buffer [index++]);
  2568  007B  087D               	movf	Run_Bootloader@index,w
  2569  007C  3EA0               	addlw	(low (_frame| 0))& (0+255)
  2570  007D  0086               	movwf	6
  2571  007E  0187               	clrf	7
  2572  007F  0801               	movf	1,w
  2573  0080  3183  231F  3180   	fcall	_EUSART1_Write
  2574  0083                     l1680:
  2575  0083  3001               	movlw	1
  2576  0084  00FA               	movwf	??_Run_Bootloader
  2577  0085  087A               	movf	??_Run_Bootloader,w
  2578  0086  07FD               	addwf	Run_Bootloader@index,f
  2579  0087                     l1682:
  2580                           
  2581                           ;mcc_generated_files/pic16f1_uart.c: 109:         while (index < msg_length)
  2582  0087  087C               	movf	Run_Bootloader@msg_length,w
  2583  0088  027D               	subwf	Run_Bootloader@index,w
  2584  0089  1C03               	skipc
  2585  008A  288C               	goto	u621
  2586  008B  288D               	goto	u620
  2587  008C                     u621:
  2588  008C  287B               	goto	l1678
  2589  008D                     u620:
  2590  008D  281B               	goto	l96
  2591  008E  0008               	return
  2592  008F                     __end_of_Run_Bootloader:
  2593                           
  2594                           	psect	text11
  2595  008F                     __ptext11:	
  2596 ;; *************** function _ProcessBootBuffer *****************
  2597 ;; Defined at:
  2598 ;;		line 211 in file "mcc_generated_files/pic16f1_bootload.c"
  2599 ;; Parameters:    Size  Location     Type
  2600 ;;		None
  2601 ;; Auto vars:     Size  Location     Type
  2602 ;;  len             1    7[COMMON] unsigned char 
  2603 ;; Return value:  Size  Location     Type
  2604 ;;                  1    wreg      unsigned char 
  2605 ;; Registers used:
  2606 ;;		wreg, fsr0l, fsr0h, fsr1l, fsr1h, status,2, status,0, pclath, cstack
  2607 ;; Tracked objects:
  2608 ;;		On entry : 0/0
  2609 ;;		On exit  : 0/0
  2610 ;;		Unchanged: 0/0
  2611 ;; Data sizes:     COMMON   BANK0   BANK1   BANK2   BANK3   BANK4   BANK5   BANK6
  2612 ;;      Params:         0       0       0       0       0       0       0       0
  2613 ;;      Locals:         1       0       0       0       0       0       0       0
  2614 ;;      Temps:          2       0       0       0       0       0       0       0
  2615 ;;      Totals:         3       0       0       0       0       0       0       0
  2616 ;;Total ram usage:        3 bytes
  2617 ;; Hardware stack levels used: 1
  2618 ;; Hardware stack levels required when called: 2
  2619 ;; This function calls:
  2620 ;;		_Calc_Checksum
  2621 ;;		_Erase_Flash
  2622 ;;		_Get_Version_Data
  2623 ;;		_Read_Config
  2624 ;;		_Write_Flash
  2625 ;; This function is called by:
  2626 ;;		_Run_Bootloader
  2627 ;; This function uses a non-reentrant model
  2628 ;;
  2629                           
  2630                           
  2631                           ;psect for function _ProcessBootBuffer
  2632  008F                     _ProcessBootBuffer:
  2633  008F                     l1610:	
  2634                           ;incstack = 0
  2635                           ; Regs used in _ProcessBootBuffer: [wreg-fsr1h+status,2+status,0+pclath+cstack]
  2636                           
  2637                           
  2638                           ;mcc_generated_files/pic16f1_bootload.c: 213:     uint8_t len;;mcc_generated_files/pic16
      +                          f1_bootload.c: 215:     EE_Key_1 = frame.EE_key_1;
  2639  008F  0141               	movlb	1	; select bank1
  2640  0090  0823               	movf	(_frame^(0+128)+3),w
  2641  0091  00F7               	movwf	??_ProcessBootBuffer
  2642  0092  0877               	movf	??_ProcessBootBuffer,w
  2643  0093  0140               	movlb	0	; select bank0
  2644  0094  00F0               	movwf	112
  2645                           
  2646                           ;mcc_generated_files/pic16f1_bootload.c: 216:     EE_Key_2 = frame.EE_key_2;
  2647  0095  0141               	movlb	1	; select bank1
  2648  0096  0824               	movf	(_frame^(0+128)+4),w
  2649  0097  00F7               	movwf	??_ProcessBootBuffer
  2650  0098  0877               	movf	??_ProcessBootBuffer,w
  2651  0099  0140               	movlb	0	; select bank0
  2652  009A  00F1               	movwf	113
  2653                           
  2654                           ;mcc_generated_files/pic16f1_bootload.c: 220:     switch (frame.command)
  2655  009B  28D2               	goto	l1626
  2656  009C                     l1612:
  2657                           
  2658                           ;mcc_generated_files/pic16f1_bootload.c: 223:         len = Get_Version_Data();
  2659  009C  3181  214E  3180   	fcall	_Get_Version_Data
  2660  009F  00F7               	movwf	??_ProcessBootBuffer
  2661  00A0  0877               	movf	??_ProcessBootBuffer,w
  2662  00A1  00F9               	movwf	ProcessBootBuffer@len
  2663                           
  2664                           ;mcc_generated_files/pic16f1_bootload.c: 224:         break;
  2665  00A2  28EF               	goto	l1628
  2666  00A3                     l1614:
  2667                           
  2668                           ;mcc_generated_files/pic16f1_bootload.c: 226:         len = Write_Flash();
  2669  00A3  3180  20F1  3180   	fcall	_Write_Flash
  2670  00A6  00F7               	movwf	??_ProcessBootBuffer
  2671  00A7  0877               	movf	??_ProcessBootBuffer,w
  2672  00A8  00F9               	movwf	ProcessBootBuffer@len
  2673                           
  2674                           ;mcc_generated_files/pic16f1_bootload.c: 227:         break;
  2675  00A9  28EF               	goto	l1628
  2676  00AA                     l1616:
  2677                           
  2678                           ;mcc_generated_files/pic16f1_bootload.c: 229:         len = Erase_Flash();
  2679  00AA  3181  21F6  3180   	fcall	_Erase_Flash
  2680  00AD  00F7               	movwf	??_ProcessBootBuffer
  2681  00AE  0877               	movf	??_ProcessBootBuffer,w
  2682  00AF  00F9               	movwf	ProcessBootBuffer@len
  2683                           
  2684                           ;mcc_generated_files/pic16f1_bootload.c: 230:         break;
  2685  00B0  28EF               	goto	l1628
  2686  00B1                     l1618:
  2687                           
  2688                           ;mcc_generated_files/pic16f1_bootload.c: 232:         len = Read_Config();
  2689  00B1  3182  2239  3180   	fcall	_Read_Config
  2690  00B4  00F7               	movwf	??_ProcessBootBuffer
  2691  00B5  0877               	movf	??_ProcessBootBuffer,w
  2692  00B6  00F9               	movwf	ProcessBootBuffer@len
  2693                           
  2694                           ;mcc_generated_files/pic16f1_bootload.c: 233:         break;
  2695  00B7  28EF               	goto	l1628
  2696  00B8                     l1620:
  2697                           
  2698                           ;mcc_generated_files/pic16f1_bootload.c: 235:         len = Calc_Checksum();
  2699  00B8  3181  21A3  3180   	fcall	_Calc_Checksum
  2700  00BB  00F7               	movwf	??_ProcessBootBuffer
  2701  00BC  0877               	movf	??_ProcessBootBuffer,w
  2702  00BD  00F9               	movwf	ProcessBootBuffer@len
  2703                           
  2704                           ;mcc_generated_files/pic16f1_bootload.c: 236:         break;
  2705  00BE  28EF               	goto	l1628
  2706  00BF                     l326:	
  2707                           ;mcc_generated_files/pic16f1_bootload.c: 237:     case 9:
  2708                           
  2709                           
  2710                           ;mcc_generated_files/pic16f1_bootload.c: 238:         frame.data[0] = 0x01;
  2711  00BF  01A9               	clrf	(_frame^(0+128)+9)
  2712  00C0  0AA9               	incf	(_frame^(0+128)+9),f
  2713                           
  2714                           ;mcc_generated_files/pic16f1_bootload.c: 239:         reset_pending = 1;
  2715  00C1  0140               	movlb	0	; select bank0
  2716  00C2  01A4               	clrf	_reset_pending
  2717  00C3  0AA4               	incf	_reset_pending,f
  2718  00C4                     l1622:
  2719                           
  2720                           ;mcc_generated_files/pic16f1_bootload.c: 240:         len = 10;
  2721  00C4  300A               	movlw	10
  2722  00C5  00F7               	movwf	??_ProcessBootBuffer
  2723  00C6  0877               	movf	??_ProcessBootBuffer,w
  2724  00C7  00F9               	movwf	ProcessBootBuffer@len
  2725                           
  2726                           ;mcc_generated_files/pic16f1_bootload.c: 241:         break;
  2727  00C8  28EF               	goto	l1628
  2728  00C9                     l1624:
  2729                           
  2730                           ;mcc_generated_files/pic16f1_bootload.c: 243:         frame.data[0] = 0xFF;
  2731  00C9  30FF               	movlw	255
  2732  00CA  00F7               	movwf	??_ProcessBootBuffer
  2733  00CB  0877               	movf	??_ProcessBootBuffer,w
  2734  00CC  00A9               	movwf	(_frame^(0+128)+9)
  2735                           
  2736                           ;mcc_generated_files/pic16f1_bootload.c: 244:         len = 10;
  2737  00CD  300A               	movlw	10
  2738  00CE  00F7               	movwf	??_ProcessBootBuffer
  2739  00CF  0877               	movf	??_ProcessBootBuffer,w
  2740  00D0  00F9               	movwf	ProcessBootBuffer@len
  2741                           
  2742                           ;mcc_generated_files/pic16f1_bootload.c: 245:     }
  2743  00D1  28EF               	goto	l1628
  2744  00D2                     l1626:
  2745  00D2  0141               	movlb	1	; select bank1
  2746  00D3  0820               	movf	_frame^(0+128),w
  2747  00D4  00F7               	movwf	??_ProcessBootBuffer
  2748  00D5  01F8               	clrf	??_ProcessBootBuffer+1
  2749                           
  2750                           ; Switch on 2 bytes has been partitioned into a top level switch of size 1, and 1 sub-sw
      +                          itches
  2751                           ; Switch size 1, requested type "simple"
  2752                           ; Number of cases is 1, Range of values is 0 to 0
  2753                           ; switch strategies available:
  2754                           ; Name         Instructions Cycles
  2755                           ; simple_byte            4     3 (average)
  2756                           ; direct_byte            8     6 (fixed)
  2757                           ; jumptable            260     6 (fixed)
  2758                           ;	Chosen strategy is simple_byte
  2759  00D6  0878               	movf	??_ProcessBootBuffer+1,w
  2760  00D7  3A00               	xorlw	0	; case 0
  2761  00D8  1903               	skipnz
  2762  00D9  28DB               	goto	l1750
  2763  00DA  28C9               	goto	l1624
  2764  00DB                     l1750:
  2765                           
  2766                           ; Switch size 1, requested type "simple"
  2767                           ; Number of cases is 6, Range of values is 0 to 9
  2768                           ; switch strategies available:
  2769                           ; Name         Instructions Cycles
  2770                           ; simple_byte           19    10 (average)
  2771                           ; direct_byte           26     6 (fixed)
  2772                           ; jumptable            260     6 (fixed)
  2773                           ;	Chosen strategy is simple_byte
  2774  00DB  0877               	movf	??_ProcessBootBuffer,w
  2775  00DC  3A00               	xorlw	0	; case 0
  2776  00DD  1903               	skipnz
  2777  00DE  289C               	goto	l1612
  2778  00DF  3A02               	xorlw	2	; case 2
  2779  00E0  1903               	skipnz
  2780  00E1  28A3               	goto	l1614
  2781  00E2  3A01               	xorlw	1	; case 3
  2782  00E3  1903               	skipnz
  2783  00E4  28AA               	goto	l1616
  2784  00E5  3A05               	xorlw	5	; case 6
  2785  00E6  1903               	skipnz
  2786  00E7  28B1               	goto	l1618
  2787  00E8  3A0E               	xorlw	14	; case 8
  2788  00E9  1903               	skipnz
  2789  00EA  28B8               	goto	l1620
  2790  00EB  3A01               	xorlw	1	; case 9
  2791  00EC  1903               	skipnz
  2792  00ED  28BF               	goto	l326
  2793  00EE  28C9               	goto	l1624
  2794  00EF                     l1628:
  2795                           
  2796                           ;mcc_generated_files/pic16f1_bootload.c: 246:     return (len);
  2797  00EF  0879               	movf	ProcessBootBuffer@len,w
  2798  00F0                     l328:
  2799  00F0  0008               	return
  2800  00F1                     __end_of_ProcessBootBuffer:
  2801                           
  2802                           	psect	text12
  2803  00F1                     __ptext12:	
  2804 ;; *************** function _Write_Flash *****************
  2805 ;; Defined at:
  2806 ;;		line 300 in file "mcc_generated_files/pic16f1_bootload.c"
  2807 ;; Parameters:    Size  Location     Type
  2808 ;;		None
  2809 ;; Auto vars:     Size  Location     Type
  2810 ;;  i               2    2[COMMON] unsigned short 
  2811 ;; Return value:  Size  Location     Type
  2812 ;;                  1    wreg      unsigned char 
  2813 ;; Registers used:
  2814 ;;		wreg, fsr1l, fsr1h, status,2, status,0, pclath, cstack
  2815 ;; Tracked objects:
  2816 ;;		On entry : 0/0
  2817 ;;		On exit  : 0/0
  2818 ;;		Unchanged: 0/0
  2819 ;; Data sizes:     COMMON   BANK0   BANK1   BANK2   BANK3   BANK4   BANK5   BANK6
  2820 ;;      Params:         0       0       0       0       0       0       0       0
  2821 ;;      Locals:         2       0       0       0       0       0       0       0
  2822 ;;      Temps:          2       0       0       0       0       0       0       0
  2823 ;;      Totals:         4       0       0       0       0       0       0       0
  2824 ;;Total ram usage:        4 bytes
  2825 ;; Hardware stack levels used: 1
  2826 ;; Hardware stack levels required when called: 1
  2827 ;; This function calls:
  2828 ;;		_StartWrite
  2829 ;; This function is called by:
  2830 ;;		_ProcessBootBuffer
  2831 ;; This function uses a non-reentrant model
  2832 ;;
  2833                           
  2834                           
  2835                           ;psect for function _Write_Flash
  2836  00F1                     _Write_Flash:
  2837  00F1                     l1500:	
  2838                           ;incstack = 0
  2839                           ; Regs used in _Write_Flash: [wreg+fsr1l+fsr1h+status,2+status,0+pclath+cstack]
  2840                           
  2841                           
  2842                           ;mcc_generated_files/pic16f1_bootload.c: 302:     NVMADRL = frame.address_L;
  2843  00F1  0141               	movlb	1	; select bank1
  2844  00F2  0825               	movf	(_frame^(0+128)+5),w
  2845  00F3  0150               	movlb	16	; select bank16
  2846  00F4  009A               	movwf	26	;volatile
  2847                           
  2848                           ;mcc_generated_files/pic16f1_bootload.c: 303:     NVMADRH = frame.address_H;
  2849  00F5  0141               	movlb	1	; select bank1
  2850  00F6  0826               	movf	(_frame^(0+128)+6),w
  2851  00F7  0150               	movlb	16	; select bank16
  2852  00F8  009B               	movwf	27	;volatile
  2853                           
  2854                           ;mcc_generated_files/pic16f1_bootload.c: 304:     NVMCON1 = 0xA4;
  2855  00F9  30A4               	movlw	164
  2856  00FA  009E               	movwf	30	;volsfr
  2857  00FB                     l1502:
  2858                           
  2859                           ;mcc_generated_files/pic16f1_bootload.c: 305:     for (uint16_t i= 0; i < frame.data_len
      +                          gth; i += 2)
  2860  00FB  01F4               	clrf	Write_Flash@i
  2861  00FC  01F5               	clrf	Write_Flash@i+1
  2862  00FD  293C               	goto	l1518
  2863  00FE                     l1504:
  2864                           
  2865                           ;mcc_generated_files/pic16f1_bootload.c: 306:     {;mcc_generated_files/pic16f1_bootload
      +                          .c: 308:         if (((NVMADRL & (32 - 1)) == (32 - 1))
  2866  00FE  301F               	movlw	31
  2867  00FF  0150               	movlb	16	; select bank16
  2868  0100  051A               	andwf	26,w	;volatile
  2869  0101  00F2               	movwf	??_Write_Flash
  2870  0102  301F               	movlw	31
  2871  0103  0672               	xorwf	??_Write_Flash,w
  2872  0104  1903               	btfsc	3,2
  2873  0105  2907               	goto	u401
  2874  0106  2908               	goto	u400
  2875  0107                     u401:
  2876  0107  2919               	goto	l341
  2877  0108                     u400:
  2878  0108                     l1506:
  2879  0108  0141               	movlb	1	; select bank1
  2880  0109  0821               	movf	(_frame^(0+128)+1),w
  2881  010A  3EFE               	addlw	254
  2882  010B  00F2               	movwf	??_Write_Flash
  2883  010C  30FF               	movlw	255
  2884  010D  3D22               	addwfc	((_frame+1)^(0+128)+1),w
  2885  010E  00F3               	movwf	??_Write_Flash+1
  2886  010F  0875               	movf	Write_Flash@i+1,w
  2887  0110  0673               	xorwf	??_Write_Flash+1,w
  2888  0111  1D03               	skipz
  2889  0112  2915               	goto	u415
  2890  0113  0874               	movf	Write_Flash@i,w
  2891  0114  0672               	xorwf	??_Write_Flash,w
  2892  0115                     u415:
  2893  0115  1D03               	skipz
  2894  0116  2918               	goto	u411
  2895  0117  2919               	goto	u410
  2896  0118                     u411:
  2897  0118  291B               	goto	l1508
  2898  0119                     u410:
  2899  0119                     l341:
  2900                           
  2901                           ;mcc_generated_files/pic16f1_bootload.c: 310:             NVMCON1bits.LWLO = 0;
  2902  0119  0150               	movlb	16	; select bank16
  2903  011A  129E               	bcf	30,5	;volsfr
  2904  011B                     l1508:
  2905                           
  2906                           ;mcc_generated_files/pic16f1_bootload.c: 311:         NVMDATL = frame.data[i];
  2907  011B  0874               	movf	Write_Flash@i,w
  2908  011C  3EA9               	addlw	(low ((_frame| 0+9)))& (0+255)
  2909  011D  0086               	movwf	6
  2910  011E  0187               	clrf	7
  2911  011F  0801               	movf	1,w
  2912  0120  0150               	movlb	16	; select bank16
  2913  0121  009C               	movwf	28	;volatile
  2914                           
  2915                           ;mcc_generated_files/pic16f1_bootload.c: 312:         NVMDATH = frame.data[i+1];
  2916  0122  0874               	movf	Write_Flash@i,w
  2917  0123  3EAA               	addlw	(low ((_frame| 0+10)))& (0+255)
  2918  0124  0086               	movwf	6
  2919  0125  0187               	clrf	7
  2920  0126  0801               	movf	1,w
  2921  0127  009D               	movwf	29	;volatile
  2922  0128                     l1510:
  2923                           
  2924                           ;mcc_generated_files/pic16f1_bootload.c: 314:         StartWrite();
  2925  0128  3183  2329  3180   	fcall	_StartWrite
  2926  012B                     l1512:
  2927                           
  2928                           ;mcc_generated_files/pic16f1_bootload.c: 315:         if ((++ NVMADRL) == 0x00)
  2929  012B  3001               	movlw	1
  2930  012C  00F2               	movwf	??_Write_Flash
  2931  012D  0872               	movf	??_Write_Flash,w
  2932  012E  0150               	movlb	16	; select bank16
  2933  012F  079A               	addwf	26,f	;volatile
  2934  0130  1D03               	btfss	3,2
  2935  0131  2933               	goto	u421
  2936  0132  2934               	goto	u420
  2937  0133                     u421:
  2938  0133  2938               	goto	l1516
  2939  0134                     u420:
  2940  0134                     l1514:
  2941                           
  2942                           ;mcc_generated_files/pic16f1_bootload.c: 316:         {;mcc_generated_files/pic16f1_boot
      +                          load.c: 317:             ++ NVMADRH;
  2943  0134  3001               	movlw	1
  2944  0135  00F2               	movwf	??_Write_Flash
  2945  0136  0872               	movf	??_Write_Flash,w
  2946  0137  079B               	addwf	27,f	;volatile
  2947  0138                     l1516:
  2948                           
  2949                           ;mcc_generated_files/pic16f1_bootload.c: 319:     }
  2950  0138  3002               	movlw	2
  2951  0139  07F4               	addwf	Write_Flash@i,f
  2952  013A  3000               	movlw	0
  2953  013B  3DF5               	addwfc	Write_Flash@i+1,f
  2954  013C                     l1518:
  2955  013C  0141               	movlb	1	; select bank1
  2956  013D  0822               	movf	((_frame+1)^(0+128)+1),w
  2957  013E  0275               	subwf	Write_Flash@i+1,w
  2958  013F  1D03               	skipz
  2959  0140  2943               	goto	u435
  2960  0141  0821               	movf	(_frame^(0+128)+1),w
  2961  0142  0274               	subwf	Write_Flash@i,w
  2962  0143                     u435:
  2963  0143  1C03               	skipc
  2964  0144  2946               	goto	u431
  2965  0145  2947               	goto	u430
  2966  0146                     u431:
  2967  0146  28FE               	goto	l1504
  2968  0147                     u430:
  2969  0147                     l343:
  2970                           
  2971                           ;mcc_generated_files/pic16f1_bootload.c: 320:     frame.data[0] = 0x01;
  2972  0147  01A9               	clrf	(_frame^(0+128)+9)
  2973  0148  0AA9               	incf	(_frame^(0+128)+9),f
  2974  0149                     l1520:
  2975                           
  2976                           ;mcc_generated_files/pic16f1_bootload.c: 321:     EE_Key_1 = 0x00;
  2977  0149  0140               	movlb	0	; select bank0
  2978  014A  01F0               	clrf	112
  2979                           
  2980                           ;mcc_generated_files/pic16f1_bootload.c: 322:     EE_Key_2 = 0x00;
  2981  014B  01F1               	clrf	113
  2982  014C                     l1522:
  2983                           
  2984                           ;mcc_generated_files/pic16f1_bootload.c: 323:     return (10);
  2985  014C  300A               	movlw	10
  2986  014D                     l344:
  2987  014D  0008               	return
  2988  014E                     __end_of_Write_Flash:
  2989                           
  2990                           	psect	text13
  2991  0239                     __ptext13:	
  2992 ;; *************** function _Read_Config *****************
  2993 ;; Defined at:
  2994 ;;		line 358 in file "mcc_generated_files/pic16f1_bootload.c"
  2995 ;; Parameters:    Size  Location     Type
  2996 ;;		None
  2997 ;; Auto vars:     Size  Location     Type
  2998 ;;  i               1    2[COMMON] unsigned char 
  2999 ;; Return value:  Size  Location     Type
  3000 ;;                  1    wreg      unsigned char 
  3001 ;; Registers used:
  3002 ;;		wreg, fsr1l, fsr1h, status,2, status,0
  3003 ;; Tracked objects:
  3004 ;;		On entry : 0/0
  3005 ;;		On exit  : 0/0
  3006 ;;		Unchanged: 0/0
  3007 ;; Data sizes:     COMMON   BANK0   BANK1   BANK2   BANK3   BANK4   BANK5   BANK6
  3008 ;;      Params:         0       0       0       0       0       0       0       0
  3009 ;;      Locals:         1       0       0       0       0       0       0       0
  3010 ;;      Temps:          2       0       0       0       0       0       0       0
  3011 ;;      Totals:         3       0       0       0       0       0       0       0
  3012 ;;Total ram usage:        3 bytes
  3013 ;; Hardware stack levels used: 1
  3014 ;; This function calls:
  3015 ;;		Nothing
  3016 ;; This function is called by:
  3017 ;;		_ProcessBootBuffer
  3018 ;; This function uses a non-reentrant model
  3019 ;;
  3020                           
  3021                           
  3022                           ;psect for function _Read_Config
  3023  0239                     _Read_Config:
  3024  0239                     l1554:	
  3025                           ;incstack = 0
  3026                           ; Regs used in _Read_Config: [wreg+fsr1l+fsr1h+status,2+status,0]
  3027                           
  3028                           
  3029                           ;mcc_generated_files/pic16f1_bootload.c: 360:     NVMADRL = frame.address_L;
  3030  0239  0141               	movlb	1	; select bank1
  3031  023A  0825               	movf	(_frame^(0+128)+5),w
  3032  023B  0150               	movlb	16	; select bank16
  3033  023C  009A               	movwf	26	;volatile
  3034                           
  3035                           ;mcc_generated_files/pic16f1_bootload.c: 361:     NVMADRH = frame.address_H;
  3036  023D  0141               	movlb	1	; select bank1
  3037  023E  0826               	movf	(_frame^(0+128)+6),w
  3038  023F  0150               	movlb	16	; select bank16
  3039  0240  009B               	movwf	27	;volatile
  3040                           
  3041                           ;mcc_generated_files/pic16f1_bootload.c: 362:     NVMCON1 = 0x40;
  3042  0241  3040               	movlw	64
  3043  0242  009E               	movwf	30	;volsfr
  3044  0243                     l1556:
  3045                           
  3046                           ;mcc_generated_files/pic16f1_bootload.c: 363:     for (uint8_t i= 0; i < frame.data_leng
      +                          th; i += 2)
  3047  0243  01F4               	clrf	Read_Config@i
  3048  0244  2A62               	goto	l1564
  3049  0245                     l356:
  3050                           
  3051                           ;mcc_generated_files/pic16f1_bootload.c: 364:     {;mcc_generated_files/pic16f1_bootload
      +                          .c: 366:         NVMCON1bits.RD = 1;
  3052  0245  0150               	movlb	16	; select bank16
  3053  0246  141E               	bsf	30,0	;volsfr
  3054                           
  3055                           ;mcc_generated_files/pic16f1_bootload.c: 367:         __nop();
  3056  0247  0000               	nop
  3057                           
  3058                           ;mcc_generated_files/pic16f1_bootload.c: 368:         __nop();
  3059  0248  0000               	nop
  3060  0249                     l1558:
  3061                           
  3062                           ;mcc_generated_files/pic16f1_bootload.c: 369:         frame.data[i] = NVMDATL;
  3063  0249  0150               	movlb	16	; select bank16
  3064  024A  081C               	movf	28,w	;volatile
  3065  024B  00F2               	movwf	??_Read_Config
  3066  024C  0874               	movf	Read_Config@i,w
  3067  024D  3EA9               	addlw	(low ((_frame| 0+9)))& (0+255)
  3068  024E  0086               	movwf	6
  3069  024F  0187               	clrf	7
  3070  0250  0872               	movf	??_Read_Config,w
  3071  0251  0081               	movwf	1
  3072                           
  3073                           ;mcc_generated_files/pic16f1_bootload.c: 370:         frame.data[i+1] = NVMDATH;
  3074  0252  081D               	movf	29,w	;volatile
  3075  0253  00F2               	movwf	??_Read_Config
  3076  0254  0874               	movf	Read_Config@i,w
  3077  0255  3EAA               	addlw	(low ((_frame| 0+10)))& (0+255)
  3078  0256  0086               	movwf	6
  3079  0257  0187               	clrf	7
  3080  0258  0872               	movf	??_Read_Config,w
  3081  0259  0081               	movwf	1
  3082  025A                     l1560:
  3083                           
  3084                           ;mcc_generated_files/pic16f1_bootload.c: 371:         ++ NVMADRL;
  3085  025A  3001               	movlw	1
  3086  025B  00F2               	movwf	??_Read_Config
  3087  025C  0872               	movf	??_Read_Config,w
  3088  025D  079A               	addwf	26,f	;volatile
  3089  025E                     l1562:
  3090                           
  3091                           ;mcc_generated_files/pic16f1_bootload.c: 372:     }
  3092  025E  3002               	movlw	2
  3093  025F  00F2               	movwf	??_Read_Config
  3094  0260  0872               	movf	??_Read_Config,w
  3095  0261  07F4               	addwf	Read_Config@i,f
  3096  0262                     l1564:
  3097  0262  0874               	movf	Read_Config@i,w
  3098  0263  00F2               	movwf	??_Read_Config
  3099  0264  01F3               	clrf	??_Read_Config+1
  3100  0265  0141               	movlb	1	; select bank1
  3101  0266  0822               	movf	((_frame+1)^(0+128)+1),w
  3102  0267  0273               	subwf	??_Read_Config+1,w
  3103  0268  1D03               	skipz
  3104  0269  2A6C               	goto	u475
  3105  026A  0821               	movf	(_frame^(0+128)+1),w
  3106  026B  0272               	subwf	??_Read_Config,w
  3107  026C                     u475:
  3108  026C  1C03               	skipc
  3109  026D  2A6F               	goto	u471
  3110  026E  2A70               	goto	u470
  3111  026F                     u471:
  3112  026F  2A45               	goto	l356
  3113  0270                     u470:
  3114  0270                     l1566:
  3115                           
  3116                           ;mcc_generated_files/pic16f1_bootload.c: 373:     return (13);
  3117  0270  300D               	movlw	13
  3118  0271                     l358:
  3119  0271  0008               	return
  3120  0272                     __end_of_Read_Config:
  3121                           
  3122                           	psect	text14
  3123  014E                     __ptext14:	
  3124 ;; *************** function _Get_Version_Data *****************
  3125 ;; Defined at:
  3126 ;;		line 255 in file "mcc_generated_files/pic16f1_bootload.c"
  3127 ;; Parameters:    Size  Location     Type
  3128 ;;		None
  3129 ;; Auto vars:     Size  Location     Type
  3130 ;;  i               1    1[COMMON] unsigned char 
  3131 ;; Return value:  Size  Location     Type
  3132 ;;                  1    wreg      unsigned char 
  3133 ;; Registers used:
  3134 ;;		wreg, fsr1l, fsr1h, status,2, status,0
  3135 ;; Tracked objects:
  3136 ;;		On entry : 0/0
  3137 ;;		On exit  : 0/0
  3138 ;;		Unchanged: 0/0
  3139 ;; Data sizes:     COMMON   BANK0   BANK1   BANK2   BANK3   BANK4   BANK5   BANK6
  3140 ;;      Params:         0       0       0       0       0       0       0       0
  3141 ;;      Locals:         1       0       0       0       0       0       0       0
  3142 ;;      Temps:          1       0       0       0       0       0       0       0
  3143 ;;      Totals:         2       0       0       0       0       0       0       0
  3144 ;;Total ram usage:        2 bytes
  3145 ;; Hardware stack levels used: 1
  3146 ;; This function calls:
  3147 ;;		Nothing
  3148 ;; This function is called by:
  3149 ;;		_ProcessBootBuffer
  3150 ;; This function uses a non-reentrant model
  3151 ;;
  3152                           
  3153                           
  3154                           ;psect for function _Get_Version_Data
  3155  014E                     _Get_Version_Data:
  3156  014E                     l1442:	
  3157                           ;incstack = 0
  3158                           ; Regs used in _Get_Version_Data: [wreg+fsr1l+fsr1h+status,2+status,0]
  3159                           
  3160                           
  3161                           ;mcc_generated_files/pic16f1_bootload.c: 257:     frame.data[0] = 0x08;
  3162  014E  3008               	movlw	8
  3163  014F  00F2               	movwf	??_Get_Version_Data
  3164  0150  0872               	movf	??_Get_Version_Data,w
  3165  0151  0141               	movlb	1	; select bank1
  3166  0152  00A9               	movwf	(_frame^(0+128)+9)
  3167  0153                     l1444:
  3168                           
  3169                           ;mcc_generated_files/pic16f1_bootload.c: 258:     frame.data[1] = 0x00;
  3170  0153  01AA               	clrf	(_frame^(0+128)+10)
  3171  0154                     l1446:
  3172                           
  3173                           ;mcc_generated_files/pic16f1_bootload.c: 259:     frame.data[2] = 0;
  3174  0154  01AB               	clrf	(_frame^(0+128)+11)
  3175  0155                     l1448:
  3176                           
  3177                           ;mcc_generated_files/pic16f1_bootload.c: 260:     frame.data[3] = 1;
  3178  0155  01AC               	clrf	(_frame^(0+128)+12)
  3179  0156  0AAC               	incf	(_frame^(0+128)+12),f
  3180  0157                     l1450:
  3181                           
  3182                           ;mcc_generated_files/pic16f1_bootload.c: 261:     frame.data[4] = 0;
  3183  0157  01AD               	clrf	(_frame^(0+128)+13)
  3184  0158                     l1452:
  3185                           
  3186                           ;mcc_generated_files/pic16f1_bootload.c: 262:     frame.data[5] = 0;
  3187  0158  01AE               	clrf	(_frame^(0+128)+14)
  3188                           
  3189                           ;mcc_generated_files/pic16f1_bootload.c: 263:     NVMADRL = 0x06;
  3190  0159  3006               	movlw	6
  3191  015A  0150               	movlb	16	; select bank16
  3192  015B  009A               	movwf	26	;volatile
  3193  015C                     l1454:
  3194                           
  3195                           ;mcc_generated_files/pic16f1_bootload.c: 264:     NVMADRH = 0x00;
  3196  015C  019B               	clrf	27	;volatile
  3197  015D                     l1456:
  3198                           
  3199                           ;mcc_generated_files/pic16f1_bootload.c: 265:     NVMCON1bits.NVMREGS = 1;
  3200  015D  171E               	bsf	30,6	;volsfr
  3201  015E                     l1458:
  3202                           
  3203                           ;mcc_generated_files/pic16f1_bootload.c: 266:     NVMCON1bits.RD = 1;
  3204  015E  141E               	bsf	30,0	;volsfr
  3205  015F                     l1460:
  3206                           
  3207                           ;mcc_generated_files/pic16f1_bootload.c: 267:     __nop();
  3208  015F  0000               	nop
  3209  0160                     l1462:
  3210                           
  3211                           ;mcc_generated_files/pic16f1_bootload.c: 268:     __nop();
  3212  0160  0000               	nop
  3213  0161                     l1464:
  3214                           
  3215                           ;mcc_generated_files/pic16f1_bootload.c: 269:     frame.data[6] = NVMDATL;
  3216  0161  0150               	movlb	16	; select bank16
  3217  0162  081C               	movf	28,w	;volatile
  3218  0163  00F2               	movwf	??_Get_Version_Data
  3219  0164  0872               	movf	??_Get_Version_Data,w
  3220  0165  0141               	movlb	1	; select bank1
  3221  0166  00AF               	movwf	(_frame^(0+128)+15)
  3222  0167                     l1466:
  3223                           
  3224                           ;mcc_generated_files/pic16f1_bootload.c: 270:     frame.data[7] = NVMDATH;
  3225  0167  0150               	movlb	16	; select bank16
  3226  0168  081D               	movf	29,w	;volatile
  3227  0169  00F2               	movwf	??_Get_Version_Data
  3228  016A  0872               	movf	??_Get_Version_Data,w
  3229  016B  0141               	movlb	1	; select bank1
  3230  016C  00B0               	movwf	(_frame^(0+128)+16)
  3231  016D                     l1468:
  3232                           
  3233                           ;mcc_generated_files/pic16f1_bootload.c: 271:     frame.data[8] = 0;
  3234  016D  01B1               	clrf	(_frame^(0+128)+17)
  3235  016E                     l1470:
  3236                           
  3237                           ;mcc_generated_files/pic16f1_bootload.c: 272:     frame.data[9] = 0;
  3238  016E  01B2               	clrf	(_frame^(0+128)+18)
  3239  016F                     l1472:
  3240                           
  3241                           ;mcc_generated_files/pic16f1_bootload.c: 274:     frame.data[10] = 32;
  3242  016F  3020               	movlw	32
  3243  0170  00F2               	movwf	??_Get_Version_Data
  3244  0171  0872               	movf	??_Get_Version_Data,w
  3245  0172  00B3               	movwf	(_frame^(0+128)+19)
  3246  0173                     l1474:
  3247                           
  3248                           ;mcc_generated_files/pic16f1_bootload.c: 275:     frame.data[11] = 32;
  3249  0173  3020               	movlw	32
  3250  0174  00F2               	movwf	??_Get_Version_Data
  3251  0175  0872               	movf	??_Get_Version_Data,w
  3252  0176  00B4               	movwf	(_frame^(0+128)+20)
  3253  0177                     l1476:
  3254                           
  3255                           ;mcc_generated_files/pic16f1_bootload.c: 277:     NVMADRL = 0x00;
  3256  0177  0150               	movlb	16	; select bank16
  3257  0178  019A               	clrf	26	;volatile
  3258  0179                     l1478:
  3259                           
  3260                           ;mcc_generated_files/pic16f1_bootload.c: 278:     NVMADRH = 0x00;
  3261  0179  019B               	clrf	27	;volatile
  3262  017A                     l1480:
  3263                           
  3264                           ;mcc_generated_files/pic16f1_bootload.c: 279:     NVMCON1bits.NVMREGS = 1;
  3265  017A  171E               	bsf	30,6	;volsfr
  3266  017B                     l1482:
  3267                           
  3268                           ;mcc_generated_files/pic16f1_bootload.c: 280:     for (uint8_t i= 12; i < 16; i++)
  3269  017B  300C               	movlw	12
  3270  017C  00F2               	movwf	??_Get_Version_Data
  3271  017D  0872               	movf	??_Get_Version_Data,w
  3272  017E  00F3               	movwf	Get_Version_Data@i
  3273  017F                     l331:
  3274                           
  3275                           ;mcc_generated_files/pic16f1_bootload.c: 281:     {;mcc_generated_files/pic16f1_bootload
      +                          .c: 282:         NVMCON1bits.RD = 1;
  3276  017F  141E               	bsf	30,0	;volsfr
  3277                           
  3278                           ;mcc_generated_files/pic16f1_bootload.c: 283:         __nop();
  3279  0180  0000               	nop
  3280                           
  3281                           ;mcc_generated_files/pic16f1_bootload.c: 284:         __nop();
  3282  0181  0000               	nop
  3283  0182                     l1488:
  3284                           
  3285                           ;mcc_generated_files/pic16f1_bootload.c: 285:         frame.data[i] = NVMDATL;
  3286  0182  0150               	movlb	16	; select bank16
  3287  0183  081C               	movf	28,w	;volatile
  3288  0184  00F2               	movwf	??_Get_Version_Data
  3289  0185  0873               	movf	Get_Version_Data@i,w
  3290  0186  3EA9               	addlw	(low ((_frame| 0+9)))& (0+255)
  3291  0187  0086               	movwf	6
  3292  0188  0187               	clrf	7
  3293  0189  0872               	movf	??_Get_Version_Data,w
  3294  018A  0081               	movwf	1
  3295  018B                     l1490:
  3296                           
  3297                           ;mcc_generated_files/pic16f1_bootload.c: 286:         if ((++ NVMADRL) == 0x00)
  3298  018B  3001               	movlw	1
  3299  018C  00F2               	movwf	??_Get_Version_Data
  3300  018D  0872               	movf	??_Get_Version_Data,w
  3301  018E  079A               	addwf	26,f	;volatile
  3302  018F  1D03               	btfss	3,2
  3303  0190  2992               	goto	u381
  3304  0191  2993               	goto	u380
  3305  0192                     u381:
  3306  0192  2997               	goto	l333
  3307  0193                     u380:
  3308  0193                     l1492:
  3309                           
  3310                           ;mcc_generated_files/pic16f1_bootload.c: 287:         {;mcc_generated_files/pic16f1_boot
      +                          load.c: 288:             ++ NVMADRH;
  3311  0193  3001               	movlw	1
  3312  0194  00F2               	movwf	??_Get_Version_Data
  3313  0195  0872               	movf	??_Get_Version_Data,w
  3314  0196  079B               	addwf	27,f	;volatile
  3315  0197                     l333:	
  3316                           ;mcc_generated_files/pic16f1_bootload.c: 289:         }
  3317                           
  3318                           
  3319                           ;mcc_generated_files/pic16f1_bootload.c: 290:     }
  3320  0197  3001               	movlw	1
  3321  0198  00F2               	movwf	??_Get_Version_Data
  3322  0199  0872               	movf	??_Get_Version_Data,w
  3323  019A  07F3               	addwf	Get_Version_Data@i,f
  3324  019B                     l1494:
  3325  019B  3010               	movlw	16
  3326  019C  0273               	subwf	Get_Version_Data@i,w
  3327  019D  1C03               	skipc
  3328  019E  29A0               	goto	u391
  3329  019F  29A1               	goto	u390
  3330  01A0                     u391:
  3331  01A0  297F               	goto	l331
  3332  01A1                     u390:
  3333  01A1                     l1496:
  3334                           
  3335                           ;mcc_generated_files/pic16f1_bootload.c: 292:     return 25;
  3336  01A1  3019               	movlw	25
  3337  01A2                     l334:
  3338  01A2  0008               	return
  3339  01A3                     __end_of_Get_Version_Data:
  3340                           
  3341                           	psect	text15
  3342  01F6                     __ptext15:	
  3343 ;; *************** function _Erase_Flash *****************
  3344 ;; Defined at:
  3345 ;;		line 329 in file "mcc_generated_files/pic16f1_bootload.c"
  3346 ;; Parameters:    Size  Location     Type
  3347 ;;		None
  3348 ;; Auto vars:     Size  Location     Type
  3349 ;;  i               2    1[COMMON] unsigned short 
  3350 ;; Return value:  Size  Location     Type
  3351 ;;                  1    wreg      unsigned char 
  3352 ;; Registers used:
  3353 ;;		wreg, status,2, status,0, pclath, cstack
  3354 ;; Tracked objects:
  3355 ;;		On entry : 0/0
  3356 ;;		On exit  : 0/0
  3357 ;;		Unchanged: 0/0
  3358 ;; Data sizes:     COMMON   BANK0   BANK1   BANK2   BANK3   BANK4   BANK5   BANK6
  3359 ;;      Params:         0       0       0       0       0       0       0       0
  3360 ;;      Locals:         2       0       0       0       0       0       0       0
  3361 ;;      Temps:          1       0       0       0       0       0       0       0
  3362 ;;      Totals:         3       0       0       0       0       0       0       0
  3363 ;;Total ram usage:        3 bytes
  3364 ;; Hardware stack levels used: 1
  3365 ;; Hardware stack levels required when called: 1
  3366 ;; This function calls:
  3367 ;;		_StartWrite
  3368 ;; This function is called by:
  3369 ;;		_ProcessBootBuffer
  3370 ;; This function uses a non-reentrant model
  3371 ;;
  3372                           
  3373                           
  3374                           ;psect for function _Erase_Flash
  3375  01F6                     _Erase_Flash:
  3376  01F6                     l1526:	
  3377                           ;incstack = 0
  3378                           ; Regs used in _Erase_Flash: [wreg+status,2+status,0+pclath+cstack]
  3379                           
  3380                           
  3381                           ;mcc_generated_files/pic16f1_bootload.c: 331:     NVMADRL = frame.address_L;
  3382  01F6  0141               	movlb	1	; select bank1
  3383  01F7  0825               	movf	(_frame^(0+128)+5),w
  3384  01F8  0150               	movlb	16	; select bank16
  3385  01F9  009A               	movwf	26	;volatile
  3386                           
  3387                           ;mcc_generated_files/pic16f1_bootload.c: 332:     NVMADRH = frame.address_H;
  3388  01FA  0141               	movlb	1	; select bank1
  3389  01FB  0826               	movf	(_frame^(0+128)+6),w
  3390  01FC  0150               	movlb	16	; select bank16
  3391  01FD  009B               	movwf	27	;volatile
  3392  01FE                     l1528:
  3393                           
  3394                           ;mcc_generated_files/pic16f1_bootload.c: 333:     for (uint16_t i=0; i < frame.data_leng
      +                          th; i++)
  3395  01FE  01F3               	clrf	Erase_Flash@i
  3396  01FF  01F4               	clrf	Erase_Flash@i+1
  3397  0200  2A28               	goto	l1546
  3398  0201                     l1530:
  3399                           
  3400                           ;mcc_generated_files/pic16f1_bootload.c: 334:     {;mcc_generated_files/pic16f1_bootload
      +                          .c: 335:         if ((NVMADRH & 0x7F) >= ((0x1000 & 0xFF00) >> 8))
  3401  0201  307F               	movlw	127
  3402  0202  0150               	movlb	16	; select bank16
  3403  0203  051B               	andwf	27,w	;volatile
  3404  0204  00F2               	movwf	??_Erase_Flash
  3405  0205  3010               	movlw	16
  3406  0206  0272               	subwf	??_Erase_Flash,w
  3407  0207  1C03               	skipc
  3408  0208  2A0A               	goto	u441
  3409  0209  2A0B               	goto	u440
  3410  020A                     u441:
  3411  020A  2A12               	goto	l1536
  3412  020B                     u440:
  3413  020B                     l1532:
  3414                           
  3415                           ;mcc_generated_files/pic16f1_bootload.c: 336:         {;mcc_generated_files/pic16f1_boot
      +                          load.c: 337:             frame.data[0] = 0xFE;
  3416  020B  30FE               	movlw	254
  3417  020C  00F2               	movwf	??_Erase_Flash
  3418  020D  0872               	movf	??_Erase_Flash,w
  3419  020E  0141               	movlb	1	; select bank1
  3420  020F  00A9               	movwf	(_frame^(0+128)+9)
  3421                           
  3422                           ;mcc_generated_files/pic16f1_bootload.c: 338:             return (10);
  3423  0210  300A               	movlw	10
  3424  0211  2A38               	goto	l350
  3425  0212                     l1536:
  3426                           
  3427                           ;mcc_generated_files/pic16f1_bootload.c: 340:         NVMCON1 = 0x94;
  3428  0212  3094               	movlw	148
  3429  0213  009E               	movwf	30	;volsfr
  3430  0214                     l1538:
  3431                           
  3432                           ;mcc_generated_files/pic16f1_bootload.c: 341:         StartWrite();
  3433  0214  3183  2329  3181   	fcall	_StartWrite
  3434  0217                     l1540:
  3435                           
  3436                           ;mcc_generated_files/pic16f1_bootload.c: 342:         if ((NVMADRL += 32) == 0x00)
  3437  0217  3020               	movlw	32
  3438  0218  00F2               	movwf	??_Erase_Flash
  3439  0219  0872               	movf	??_Erase_Flash,w
  3440  021A  0150               	movlb	16	; select bank16
  3441  021B  079A               	addwf	26,f	;volatile
  3442  021C  1D03               	btfss	3,2
  3443  021D  2A1F               	goto	u451
  3444  021E  2A20               	goto	u450
  3445  021F                     u451:
  3446  021F  2A24               	goto	l1544
  3447  0220                     u450:
  3448  0220                     l1542:
  3449                           
  3450                           ;mcc_generated_files/pic16f1_bootload.c: 343:         {;mcc_generated_files/pic16f1_boot
      +                          load.c: 344:             ++ NVMADRH;
  3451  0220  3001               	movlw	1
  3452  0221  00F2               	movwf	??_Erase_Flash
  3453  0222  0872               	movf	??_Erase_Flash,w
  3454  0223  079B               	addwf	27,f	;volatile
  3455  0224                     l1544:
  3456                           
  3457                           ;mcc_generated_files/pic16f1_bootload.c: 346:     }
  3458  0224  3001               	movlw	1
  3459  0225  07F3               	addwf	Erase_Flash@i,f
  3460  0226  3000               	movlw	0
  3461  0227  3DF4               	addwfc	Erase_Flash@i+1,f
  3462  0228                     l1546:
  3463  0228  0141               	movlb	1	; select bank1
  3464  0229  0822               	movf	((_frame+1)^(0+128)+1),w
  3465  022A  0274               	subwf	Erase_Flash@i+1,w
  3466  022B  1D03               	skipz
  3467  022C  2A2F               	goto	u465
  3468  022D  0821               	movf	(_frame^(0+128)+1),w
  3469  022E  0273               	subwf	Erase_Flash@i,w
  3470  022F                     u465:
  3471  022F  1C03               	skipc
  3472  0230  2A32               	goto	u461
  3473  0231  2A33               	goto	u460
  3474  0232                     u461:
  3475  0232  2A01               	goto	l1530
  3476  0233                     u460:
  3477  0233                     l352:
  3478                           
  3479                           ;mcc_generated_files/pic16f1_bootload.c: 347:     frame.data[0] = 0x01;
  3480  0233  01A9               	clrf	(_frame^(0+128)+9)
  3481  0234  0AA9               	incf	(_frame^(0+128)+9),f
  3482  0235                     l1548:
  3483                           
  3484                           ;mcc_generated_files/pic16f1_bootload.c: 348:     frame.EE_key_1 = 0x00;
  3485  0235  01A3               	clrf	(_frame^(0+128)+3)
  3486                           
  3487                           ;mcc_generated_files/pic16f1_bootload.c: 349:     frame.EE_key_2 = 0x00;
  3488  0236  01A4               	clrf	(_frame^(0+128)+4)
  3489  0237                     l1550:
  3490                           
  3491                           ;mcc_generated_files/pic16f1_bootload.c: 350:     return (10);
  3492  0237  300A               	movlw	10
  3493  0238                     l350:
  3494  0238  0008               	return
  3495  0239                     __end_of_Erase_Flash:
  3496                           
  3497                           	psect	text16
  3498  0329                     __ptext16:	
  3499 ;; *************** function _StartWrite *****************
  3500 ;; Defined at:
  3501 ;;		line 411 in file "mcc_generated_files/pic16f1_bootload.c"
  3502 ;; Parameters:    Size  Location     Type
  3503 ;;		None
  3504 ;; Auto vars:     Size  Location     Type
  3505 ;;		None
  3506 ;; Return value:  Size  Location     Type
  3507 ;;                  1    wreg      void 
  3508 ;; Registers used:
  3509 ;;		None
  3510 ;; Tracked objects:
  3511 ;;		On entry : 0/0
  3512 ;;		On exit  : 0/0
  3513 ;;		Unchanged: 0/0
  3514 ;; Data sizes:     COMMON   BANK0   BANK1   BANK2   BANK3   BANK4   BANK5   BANK6
  3515 ;;      Params:         0       0       0       0       0       0       0       0
  3516 ;;      Locals:         0       0       0       0       0       0       0       0
  3517 ;;      Temps:          0       0       0       0       0       0       0       0
  3518 ;;      Totals:         0       0       0       0       0       0       0       0
  3519 ;;Total ram usage:        0 bytes
  3520 ;; Hardware stack levels used: 1
  3521 ;; This function calls:
  3522 ;;		Nothing
  3523 ;; This function is called by:
  3524 ;;		_Write_Flash
  3525 ;;		_Erase_Flash
  3526 ;; This function uses a non-reentrant model
  3527 ;;
  3528                           
  3529                           
  3530                           ;psect for function _StartWrite
  3531  0329                     _StartWrite:
  3532  0329                     l1440:	
  3533                           ;incstack = 0
  3534                           ; Regs used in _StartWrite: []
  3535                           
  3536  0329  0064               	clrwdt	;# 
  3537  032A  0870               	movf	_EE_Key_1,w	;# 
  3538  032B  009F               	movwf	31	;# 
  3539  032C  0871               	movf	_EE_Key_2,w	;# 
  3540  032D  009F               	movwf	31	;# 
  3541  032E  149E               	bsf	30,1	;# 
  3542                           
  3543                           ;mcc_generated_files/pic16f1_bootload.c: 424:     __nop();
  3544  032F  0000               	nop
  3545                           
  3546                           ;mcc_generated_files/pic16f1_bootload.c: 425:     __nop();
  3547  0330  0000               	nop
  3548  0331                     l368:	
  3549                           ;mcc_generated_files/pic16f1_bootload.c: 426:     return;
  3550                           
  3551  0331  0008               	return
  3552  0332                     __end_of_StartWrite:
  3553                           
  3554                           	psect	text17
  3555  01A3                     __ptext17:	
  3556 ;; *************** function _Calc_Checksum *****************
  3557 ;; Defined at:
  3558 ;;		line 381 in file "mcc_generated_files/pic16f1_bootload.c"
  3559 ;; Parameters:    Size  Location     Type
  3560 ;;		None
  3561 ;; Auto vars:     Size  Location     Type
  3562 ;;  i               2    3[COMMON] unsigned short 
  3563 ;; Return value:  Size  Location     Type
  3564 ;;                  1    wreg      unsigned char 
  3565 ;; Registers used:
  3566 ;;		wreg, status,2, status,0
  3567 ;; Tracked objects:
  3568 ;;		On entry : 0/0
  3569 ;;		On exit  : 0/0
  3570 ;;		Unchanged: 0/0
  3571 ;; Data sizes:     COMMON   BANK0   BANK1   BANK2   BANK3   BANK4   BANK5   BANK6
  3572 ;;      Params:         0       0       0       0       0       0       0       0
  3573 ;;      Locals:         2       0       0       0       0       0       0       0
  3574 ;;      Temps:          3       0       0       0       0       0       0       0
  3575 ;;      Totals:         5       0       0       0       0       0       0       0
  3576 ;;Total ram usage:        5 bytes
  3577 ;; Hardware stack levels used: 1
  3578 ;; This function calls:
  3579 ;;		Nothing
  3580 ;; This function is called by:
  3581 ;;		_ProcessBootBuffer
  3582 ;; This function uses a non-reentrant model
  3583 ;;
  3584                           
  3585                           
  3586                           ;psect for function _Calc_Checksum
  3587  01A3                     _Calc_Checksum:
  3588  01A3                     l1570:	
  3589                           ;incstack = 0
  3590                           ; Regs used in _Calc_Checksum: [wreg+status,2+status,0]
  3591                           
  3592                           
  3593                           ;mcc_generated_files/pic16f1_bootload.c: 383:     NVMADRL = frame.address_L;
  3594  01A3  0141               	movlb	1	; select bank1
  3595  01A4  0825               	movf	(_frame^(0+128)+5),w
  3596  01A5  0150               	movlb	16	; select bank16
  3597  01A6  009A               	movwf	26	;volatile
  3598                           
  3599                           ;mcc_generated_files/pic16f1_bootload.c: 384:     NVMADRH = frame.address_H;
  3600  01A7  0141               	movlb	1	; select bank1
  3601  01A8  0826               	movf	(_frame^(0+128)+6),w
  3602  01A9  0150               	movlb	16	; select bank16
  3603  01AA  009B               	movwf	27	;volatile
  3604                           
  3605                           ;mcc_generated_files/pic16f1_bootload.c: 385:     NVMCON1 = 0x80;
  3606  01AB  3080               	movlw	128
  3607  01AC  009E               	movwf	30	;volsfr
  3608  01AD                     l1572:
  3609                           
  3610                           ;mcc_generated_files/pic16f1_bootload.c: 386:     check_sum = 0;
  3611  01AD  0140               	movlb	0	; select bank0
  3612  01AE  01A2               	clrf	_check_sum
  3613  01AF  01A3               	clrf	_check_sum+1
  3614  01B0                     l1574:
  3615                           
  3616                           ;mcc_generated_files/pic16f1_bootload.c: 387:     for (uint16_t i = 0;i < frame.data_len
      +                          gth; i += 2)
  3617  01B0  01F5               	clrf	Calc_Checksum@i
  3618  01B1  01F6               	clrf	Calc_Checksum@i+1
  3619  01B2  29DD               	goto	l1584
  3620  01B3                     l362:
  3621                           
  3622                           ;mcc_generated_files/pic16f1_bootload.c: 388:     {;mcc_generated_files/pic16f1_bootload
      +                          .c: 389:         NVMCON1bits.RD = 1;
  3623  01B3  0150               	movlb	16	; select bank16
  3624  01B4  141E               	bsf	30,0	;volsfr
  3625                           
  3626                           ;mcc_generated_files/pic16f1_bootload.c: 390:         __nop();
  3627  01B5  0000               	nop
  3628                           
  3629                           ;mcc_generated_files/pic16f1_bootload.c: 391:         __nop();
  3630  01B6  0000               	nop
  3631  01B7                     l1576:
  3632                           
  3633                           ;mcc_generated_files/pic16f1_bootload.c: 392:         check_sum += (uint16_t)NVMDATL;
  3634  01B7  0150               	movlb	16	; select bank16
  3635  01B8  081C               	movf	28,w	;volatile
  3636  01B9  00F2               	movwf	??_Calc_Checksum
  3637  01BA  01F3               	clrf	??_Calc_Checksum+1
  3638  01BB  0872               	movf	??_Calc_Checksum,w
  3639  01BC  0140               	movlb	0	; select bank0
  3640  01BD  07A2               	addwf	_check_sum,f
  3641  01BE  0873               	movf	??_Calc_Checksum+1,w
  3642  01BF  3DA3               	addwfc	_check_sum+1,f
  3643                           
  3644                           ;mcc_generated_files/pic16f1_bootload.c: 393:         check_sum += ((uint16_t)NVMDATH) <
      +                          < 8;
  3645  01C0  0150               	movlb	16	; select bank16
  3646  01C1  081D               	movf	29,w	;volatile
  3647  01C2  00F2               	movwf	??_Calc_Checksum
  3648  01C3  01F3               	clrf	??_Calc_Checksum+1
  3649  01C4  0872               	movf	??_Calc_Checksum,w
  3650  01C5  00F3               	movwf	??_Calc_Checksum+1
  3651  01C6  01F2               	clrf	??_Calc_Checksum
  3652  01C7  0872               	movf	??_Calc_Checksum,w
  3653  01C8  0140               	movlb	0	; select bank0
  3654  01C9  07A2               	addwf	_check_sum,f
  3655  01CA  0873               	movf	??_Calc_Checksum+1,w
  3656  01CB  3DA3               	addwfc	_check_sum+1,f
  3657  01CC                     l1578:
  3658                           
  3659                           ;mcc_generated_files/pic16f1_bootload.c: 394:         if ((++ NVMADRL) == 0x00)
  3660  01CC  3001               	movlw	1
  3661  01CD  00F2               	movwf	??_Calc_Checksum
  3662  01CE  0872               	movf	??_Calc_Checksum,w
  3663  01CF  0150               	movlb	16	; select bank16
  3664  01D0  079A               	addwf	26,f	;volatile
  3665  01D1  1D03               	btfss	3,2
  3666  01D2  29D4               	goto	u481
  3667  01D3  29D5               	goto	u480
  3668  01D4                     u481:
  3669  01D4  29D9               	goto	l1582
  3670  01D5                     u480:
  3671  01D5                     l1580:
  3672                           
  3673                           ;mcc_generated_files/pic16f1_bootload.c: 395:         {;mcc_generated_files/pic16f1_boot
      +                          load.c: 396:             ++ NVMADRH;
  3674  01D5  3001               	movlw	1
  3675  01D6  00F2               	movwf	??_Calc_Checksum
  3676  01D7  0872               	movf	??_Calc_Checksum,w
  3677  01D8  079B               	addwf	27,f	;volatile
  3678  01D9                     l1582:
  3679                           
  3680                           ;mcc_generated_files/pic16f1_bootload.c: 398:      }
  3681  01D9  3002               	movlw	2
  3682  01DA  07F5               	addwf	Calc_Checksum@i,f
  3683  01DB  3000               	movlw	0
  3684  01DC  3DF6               	addwfc	Calc_Checksum@i+1,f
  3685  01DD                     l1584:
  3686  01DD  0141               	movlb	1	; select bank1
  3687  01DE  0822               	movf	((_frame+1)^(0+128)+1),w
  3688  01DF  0276               	subwf	Calc_Checksum@i+1,w
  3689  01E0  1D03               	skipz
  3690  01E1  29E4               	goto	u495
  3691  01E2  0821               	movf	(_frame^(0+128)+1),w
  3692  01E3  0275               	subwf	Calc_Checksum@i,w
  3693  01E4                     u495:
  3694  01E4  1C03               	skipc
  3695  01E5  29E7               	goto	u491
  3696  01E6  29E8               	goto	u490
  3697  01E7                     u491:
  3698  01E7  29B3               	goto	l362
  3699  01E8                     u490:
  3700  01E8                     l1586:
  3701                           
  3702                           ;mcc_generated_files/pic16f1_bootload.c: 399:      frame.data[0] = (uint8_t) (check_sum 
      +                          & 0x00FF);
  3703  01E8  0140               	movlb	0	; select bank0
  3704  01E9  0822               	movf	_check_sum,w
  3705  01EA  00F2               	movwf	??_Calc_Checksum
  3706  01EB  0872               	movf	??_Calc_Checksum,w
  3707  01EC  0141               	movlb	1	; select bank1
  3708  01ED  00A9               	movwf	(_frame^(0+128)+9)
  3709  01EE                     l1588:
  3710                           
  3711                           ;mcc_generated_files/pic16f1_bootload.c: 400:      frame.data[1] = (uint8_t)((check_sum 
      +                          & 0xFF00) >> 8);
  3712  01EE  0140               	movlb	0	; select bank0
  3713  01EF  0823               	movf	_check_sum+1,w
  3714  01F0  00F2               	movwf	??_Calc_Checksum
  3715  01F1  0872               	movf	??_Calc_Checksum,w
  3716  01F2  0141               	movlb	1	; select bank1
  3717  01F3  00AA               	movwf	(_frame^(0+128)+10)
  3718  01F4                     l1590:
  3719                           
  3720                           ;mcc_generated_files/pic16f1_bootload.c: 401:      return (11);
  3721  01F4  300B               	movlw	11
  3722  01F5                     l365:
  3723  01F5  0008               	return
  3724  01F6                     __end_of_Calc_Checksum:
  3725                           
  3726                           	psect	text18
  3727  031F                     __ptext18:	
  3728 ;; *************** function _EUSART1_Write *****************
  3729 ;; Defined at:
  3730 ;;		line 132 in file "mcc_generated_files/eusart1.c"
  3731 ;; Parameters:    Size  Location     Type
  3732 ;;  txData          1    wreg     unsigned char 
  3733 ;; Auto vars:     Size  Location     Type
  3734 ;;  txData          1    0[COMMON] unsigned char 
  3735 ;; Return value:  Size  Location     Type
  3736 ;;                  1    wreg      void 
  3737 ;; Registers used:
  3738 ;;		wreg
  3739 ;; Tracked objects:
  3740 ;;		On entry : 0/0
  3741 ;;		On exit  : 0/0
  3742 ;;		Unchanged: 0/0
  3743 ;; Data sizes:     COMMON   BANK0   BANK1   BANK2   BANK3   BANK4   BANK5   BANK6
  3744 ;;      Params:         0       0       0       0       0       0       0       0
  3745 ;;      Locals:         1       0       0       0       0       0       0       0
  3746 ;;      Temps:          0       0       0       0       0       0       0       0
  3747 ;;      Totals:         1       0       0       0       0       0       0       0
  3748 ;;Total ram usage:        1 bytes
  3749 ;; Hardware stack levels used: 1
  3750 ;; This function calls:
  3751 ;;		Nothing
  3752 ;; This function is called by:
  3753 ;;		_Run_Bootloader
  3754 ;; This function uses a non-reentrant model
  3755 ;;
  3756                           
  3757                           
  3758                           ;psect for function _EUSART1_Write
  3759  031F                     _EUSART1_Write:
  3760                           
  3761                           ;incstack = 0
  3762                           ; Regs used in _EUSART1_Write: [wreg]
  3763                           ;EUSART1_Write@txData stored from wreg
  3764  031F  00F2               	movwf	EUSART1_Write@txData
  3765  0320                     l1638:
  3766  0320                     l230:	
  3767                           ;mcc_generated_files/eusart1.c: 135:     {;mcc_generated_files/eusart1.c: 136:     }
  3768                           
  3769                           
  3770                           ;mcc_generated_files/eusart1.c: 134:     while(0 == PIR1bits.TX1IF)
  3771  0320  014E               	movlb	14	; select bank14
  3772  0321  1D8D               	btfss	13,3	;volatile
  3773  0322  2B24               	goto	u531
  3774  0323  2B25               	goto	u530
  3775  0324                     u531:
  3776  0324  2B20               	goto	l230
  3777  0325                     u530:
  3778  0325                     l1640:
  3779                           
  3780                           ;mcc_generated_files/eusart1.c: 138:     TX1REG = txData;
  3781  0325  0872               	movf	EUSART1_Write@txData,w
  3782  0326  0142               	movlb	2	; select bank2
  3783  0327  009A               	movwf	26	;volatile
  3784  0328                     l233:
  3785  0328  0008               	return
  3786  0329                     __end_of_EUSART1_Write:
  3787                           
  3788                           	psect	text19
  3789  030F                     __ptext19:	
  3790 ;; *************** function _EUSART1_Read *****************
  3791 ;; Defined at:
  3792 ;;		line 113 in file "mcc_generated_files/eusart1.c"
  3793 ;; Parameters:    Size  Location     Type
  3794 ;;		None
  3795 ;; Auto vars:     Size  Location     Type
  3796 ;;		None
  3797 ;; Return value:  Size  Location     Type
  3798 ;;                  1    wreg      unsigned char 
  3799 ;; Registers used:
  3800 ;;		wreg, status,2
  3801 ;; Tracked objects:
  3802 ;;		On entry : 0/0
  3803 ;;		On exit  : 0/0
  3804 ;;		Unchanged: 0/0
  3805 ;; Data sizes:     COMMON   BANK0   BANK1   BANK2   BANK3   BANK4   BANK5   BANK6
  3806 ;;      Params:         0       0       0       0       0       0       0       0
  3807 ;;      Locals:         0       0       0       0       0       0       0       0
  3808 ;;      Temps:          0       0       0       0       0       0       0       0
  3809 ;;      Totals:         0       0       0       0       0       0       0       0
  3810 ;;Total ram usage:        0 bytes
  3811 ;; Hardware stack levels used: 1
  3812 ;; This function calls:
  3813 ;;		Nothing
  3814 ;; This function is called by:
  3815 ;;		_Run_Bootloader
  3816 ;; This function uses a non-reentrant model
  3817 ;;
  3818                           
  3819                           
  3820                           ;psect for function _EUSART1_Read
  3821  030F                     _EUSART1_Read:
  3822  030F                     l1598:	
  3823                           ;incstack = 0
  3824                           ; Regs used in _EUSART1_Read: [wreg+status,2]
  3825                           
  3826  030F                     l223:	
  3827                           ;mcc_generated_files/eusart1.c: 116:     {;mcc_generated_files/eusart1.c: 117:     }
  3828                           
  3829                           
  3830                           ;mcc_generated_files/eusart1.c: 115:     while(!PIR1bits.RC1IF)
  3831  030F  014E               	movlb	14	; select bank14
  3832  0310  1E0D               	btfss	13,4	;volatile
  3833  0311  2B13               	goto	u511
  3834  0312  2B14               	goto	u510
  3835  0313                     u511:
  3836  0313  2B0F               	goto	l223
  3837  0314                     u510:
  3838  0314                     l1600:
  3839                           
  3840                           ;mcc_generated_files/eusart1.c: 119:     eusart1RxLastError.status = 0;
  3841  0314  0140               	movlb	0	; select bank0
  3842  0315  01A8               	clrf	_eusart1RxLastError	;volatile
  3843  0316                     l1602:
  3844                           
  3845                           ;mcc_generated_files/eusart1.c: 121:     if(1 == RC1STAbits.OERR)
  3846  0316  0142               	movlb	2	; select bank2
  3847  0317  1C9D               	btfss	29,1	;volatile
  3848  0318  2B1A               	goto	u521
  3849  0319  2B1B               	goto	u520
  3850  031A                     u521:
  3851  031A  2B1D               	goto	l1606
  3852  031B                     u520:
  3853  031B                     l1604:
  3854                           
  3855                           ;mcc_generated_files/eusart1.c: 122:     {;mcc_generated_files/eusart1.c: 125:         R
      +                          C1STAbits.CREN = 0;
  3856  031B  121D               	bcf	29,4	;volatile
  3857                           
  3858                           ;mcc_generated_files/eusart1.c: 126:         RC1STAbits.CREN = 1;
  3859  031C  161D               	bsf	29,4	;volatile
  3860  031D                     l1606:
  3861                           
  3862                           ;mcc_generated_files/eusart1.c: 129:     return RC1REG;
  3863  031D  0819               	movf	25,w	;volatile
  3864  031E                     l227:
  3865  031E  0008               	return
  3866  031F                     __end_of_EUSART1_Read:
  3867                           
  3868                           	psect	text20
  3869  0332                     __ptext20:	
  3870 ;; *************** function _Check_Device_Reset *****************
  3871 ;; Defined at:
  3872 ;;		line 434 in file "mcc_generated_files/pic16f1_bootload.c"
  3873 ;; Parameters:    Size  Location     Type
  3874 ;;		None
  3875 ;; Auto vars:     Size  Location     Type
  3876 ;;		None
  3877 ;; Return value:  Size  Location     Type
  3878 ;;                  1    wreg      void 
  3879 ;; Registers used:
  3880 ;;		wreg, status,2, status,0
  3881 ;; Tracked objects:
  3882 ;;		On entry : 0/0
  3883 ;;		On exit  : 0/0
  3884 ;;		Unchanged: 0/0
  3885 ;; Data sizes:     COMMON   BANK0   BANK1   BANK2   BANK3   BANK4   BANK5   BANK6
  3886 ;;      Params:         0       0       0       0       0       0       0       0
  3887 ;;      Locals:         0       0       0       0       0       0       0       0
  3888 ;;      Temps:          0       0       0       0       0       0       0       0
  3889 ;;      Totals:         0       0       0       0       0       0       0       0
  3890 ;;Total ram usage:        0 bytes
  3891 ;; Hardware stack levels used: 1
  3892 ;; This function calls:
  3893 ;;		Nothing
  3894 ;; This function is called by:
  3895 ;;		_Run_Bootloader
  3896 ;; This function uses a non-reentrant model
  3897 ;;
  3898                           
  3899                           
  3900                           ;psect for function _Check_Device_Reset
  3901  0332                     _Check_Device_Reset:
  3902  0332                     l1594:	
  3903                           ;incstack = 0
  3904                           ; Regs used in _Check_Device_Reset: [wreg+status,2+status,0]
  3905                           
  3906                           
  3907                           ;mcc_generated_files/pic16f1_bootload.c: 436:     if (reset_pending == 1)
  3908  0332  0140               	movlb	0	; select bank0
  3909  0333  0324               	decf	_reset_pending,w
  3910  0334  1D03               	btfss	3,2
  3911  0335  2B37               	goto	u501
  3912  0336  2B38               	goto	u500
  3913  0337                     u501:
  3914  0337  2B39               	goto	l372
  3915  0338                     u500:
  3916  0338                     l1596:
  3917  0338  0001               	reset	;# 
  3918  0339                     l372:
  3919  0339  0008               	return
  3920  033A                     __end_of_Check_Device_Reset:
  3921                           
  3922                           	psect	text21
  3923  029C                     __ptext21:	
  3924 ;; *************** function _Bootload_Required *****************
  3925 ;; Defined at:
  3926 ;;		line 175 in file "mcc_generated_files/pic16f1_bootload.c"
  3927 ;; Parameters:    Size  Location     Type
  3928 ;;		None
  3929 ;; Auto vars:     Size  Location     Type
  3930 ;;  i               1    1[COMMON] unsigned char 
  3931 ;; Return value:  Size  Location     Type
  3932 ;;                  1    wreg      _Bool 
  3933 ;; Registers used:
  3934 ;;		wreg, status,2, status,0
  3935 ;; Tracked objects:
  3936 ;;		On entry : 0/0
  3937 ;;		On exit  : 0/0
  3938 ;;		Unchanged: 0/0
  3939 ;; Data sizes:     COMMON   BANK0   BANK1   BANK2   BANK3   BANK4   BANK5   BANK6
  3940 ;;      Params:         0       0       0       0       0       0       0       0
  3941 ;;      Locals:         1       0       0       0       0       0       0       0
  3942 ;;      Temps:          1       0       0       0       0       0       0       0
  3943 ;;      Totals:         2       0       0       0       0       0       0       0
  3944 ;;Total ram usage:        2 bytes
  3945 ;; Hardware stack levels used: 1
  3946 ;; This function calls:
  3947 ;;		Nothing
  3948 ;; This function is called by:
  3949 ;;		_BOOTLOADER_Initialize
  3950 ;; This function uses a non-reentrant model
  3951 ;;
  3952                           
  3953                           
  3954                           ;psect for function _Bootload_Required
  3955  029C                     _Bootload_Required:
  3956  029C                     l1156:	
  3957                           ;incstack = 0
  3958                           ; Regs used in _Bootload_Required: [wreg+status,2+status,0]
  3959                           
  3960                           
  3961                           ;mcc_generated_files/pic16f1_bootload.c: 182:     for (uint8_t i = 0; i != 0xFF; i++) __
      +                          nop();
  3962  029C  01F3               	clrf	Bootload_Required@i
  3963  029D                     l312:
  3964  029D  0000               	nop
  3965  029E                     l1162:
  3966  029E  3001               	movlw	1
  3967  029F  00F2               	movwf	??_Bootload_Required
  3968  02A0  0872               	movf	??_Bootload_Required,w
  3969  02A1  07F3               	addwf	Bootload_Required@i,f
  3970  02A2  0A73               	incf	Bootload_Required@i,w
  3971  02A3  1D03               	btfss	3,2
  3972  02A4  2AA6               	goto	u261
  3973  02A5  2AA7               	goto	u260
  3974  02A6                     u261:
  3975  02A6  2A9D               	goto	l312
  3976  02A7                     u260:
  3977  02A7                     l313:
  3978                           
  3979                           ;mcc_generated_files/pic16f1_bootload.c: 184:     if (PORTCbits.RC2 == 0)
  3980  02A7  0140               	movlb	0	; select bank0
  3981  02A8  190E               	btfsc	14,2	;volatile
  3982  02A9  2AAB               	goto	u271
  3983  02AA  2AAC               	goto	u270
  3984  02AB                     u271:
  3985  02AB  2AAE               	goto	l1168
  3986  02AC                     u270:
  3987  02AC                     l1164:
  3988                           
  3989                           ;mcc_generated_files/pic16f1_bootload.c: 185:     {;mcc_generated_files/pic16f1_bootload
      +                          .c: 186:         return (1);
  3990  02AC  3001               	movlw	1
  3991  02AD  2AC5               	goto	l315
  3992  02AE                     l1168:
  3993                           
  3994                           ;mcc_generated_files/pic16f1_bootload.c: 193:     NVMADRL = 0x400 & 0xFF;
  3995  02AE  0150               	movlb	16	; select bank16
  3996  02AF  019A               	clrf	26	;volatile
  3997  02B0                     l1170:
  3998                           
  3999                           ;mcc_generated_files/pic16f1_bootload.c: 194:     NVMADRH = (0x400 & 0xFF00UL)>> 8;
  4000  02B0  3004               	movlw	4
  4001  02B1  009B               	movwf	27	;volatile
  4002  02B2                     l1172:
  4003                           
  4004                           ;mcc_generated_files/pic16f1_bootload.c: 197:     NVMCON1 = 0x80;
  4005  02B2  3080               	movlw	128
  4006  02B3  009E               	movwf	30	;volsfr
  4007  02B4                     l1174:
  4008                           
  4009                           ;mcc_generated_files/pic16f1_bootload.c: 198:     NVMCON1bits.RD = 1;
  4010  02B4  141E               	bsf	30,0	;volsfr
  4011  02B5                     l1176:
  4012                           
  4013                           ;mcc_generated_files/pic16f1_bootload.c: 199:     __nop();
  4014  02B5  0000               	nop
  4015  02B6                     l1178:
  4016                           
  4017                           ;mcc_generated_files/pic16f1_bootload.c: 200:     __nop();
  4018  02B6  0000               	nop
  4019  02B7                     l1180:
  4020                           
  4021                           ;mcc_generated_files/pic16f1_bootload.c: 201:     if ((NVMDATH == 0x3F) && (NVMDATL == 0
      +                          xFF))
  4022  02B7  303F               	movlw	63
  4023  02B8  0150               	movlb	16	; select bank16
  4024  02B9  061D               	xorwf	29,w	;volatile
  4025  02BA  1D03               	btfss	3,2
  4026  02BB  2ABD               	goto	u281
  4027  02BC  2ABE               	goto	u280
  4028  02BD                     u281:
  4029  02BD  2AC4               	goto	l1188
  4030  02BE                     u280:
  4031  02BE                     l1182:
  4032  02BE  0A1C               	incf	28,w	;volatile
  4033  02BF  1D03               	btfss	3,2
  4034  02C0  2AC2               	goto	u291
  4035  02C1  2AC3               	goto	u290
  4036  02C2                     u291:
  4037  02C2  2AC4               	goto	l1188
  4038  02C3                     u290:
  4039  02C3  2AAC               	goto	l1164
  4040  02C4                     l1188:
  4041                           
  4042                           ;mcc_generated_files/pic16f1_bootload.c: 206:     return (0);
  4043  02C4  3000               	movlw	0
  4044  02C5                     l315:
  4045  02C5  0008               	return
  4046  02C6                     __end_of_Bootload_Required:
  4047  007E                     btemp	set	126	;btemp
  4048  007E                     wtemp0	set	126

Data Sizes:
    Strings     0
    Constant    0
    Data        0
    BSS         82
    Persistent  38
    Stack       0

Auto Spaces:
    Space          Size  Autos    Used
    COMMON           12     12      12
    BANK0            80      0      15
    BANK1            80      0      73
    BANK2            80      0       0
    BANK3            80      0       0
    BANK4            80      0       0
    BANK5            80      0       0
    BANK6            16      0       0

Pointer List with Targets:

    EUSART1_SetErrorHandler@interruptHandler	PTR FTN()void  size(2) Largest target is 1
		 -> EUSART1_DefaultErrorHandler(), 

    EUSART1_ErrorHandler	PTR FTN()void  size(2) Largest target is 1
		 -> Absolute function(), EUSART1_DefaultErrorHandler(), 

    EUSART1_SetOverrunErrorHandler@interruptHandler	PTR FTN()void  size(2) Largest target is 1
		 -> EUSART1_DefaultOverrunErrorHandler(), 

    EUSART1_OverrunErrorHandler	PTR FTN()void  size(2) Largest target is 1
		 -> Absolute function(), EUSART1_DefaultOverrunErrorHandler(), 

    EUSART1_SetFramingErrorHandler@interruptHandler	PTR FTN()void  size(2) Largest target is 1
		 -> EUSART1_DefaultFramingErrorHandler(), 

    EUSART1_FramingErrorHandler	PTR FTN()void  size(2) Largest target is 1
		 -> Absolute function(), EUSART1_DefaultFramingErrorHandler(), 


Critical Paths under _main in COMMON

    _EUSART1_Initialize->_EUSART1_SetErrorHandler
    _EUSART1_Initialize->_EUSART1_SetFramingErrorHandler
    _EUSART1_Initialize->_EUSART1_SetOverrunErrorHandler
    _BOOTLOADER_Initialize->_Run_Bootloader
    _Run_Bootloader->_ProcessBootBuffer
    _ProcessBootBuffer->_Calc_Checksum

Critical Paths under _main in BANK0

    None.

Critical Paths under _main in BANK1

    None.

Critical Paths under _main in BANK2

    None.

Critical Paths under _main in BANK3

    None.

Critical Paths under _main in BANK4

    None.

Critical Paths under _main in BANK5

    None.

Critical Paths under _main in BANK6

    None.

Call Graph Tables:

 ---------------------------------------------------------------------------------
 (Depth) Function   	        Calls       Base Space   Used Autos Params    Refs
 ---------------------------------------------------------------------------------
 (0) _main                                                 0     0      0     834
                  _SYSTEM_Initialize
 ---------------------------------------------------------------------------------
 (1) _SYSTEM_Initialize                                    0     0      0     834
              _BOOTLOADER_Initialize
                 _EUSART1_Initialize
              _OSCILLATOR_Initialize
             _PIN_MANAGER_Initialize
                     _WDT_Initialize
 ---------------------------------------------------------------------------------
 (2) _WDT_Initialize                                       0     0      0       0
 ---------------------------------------------------------------------------------
 (2) _PIN_MANAGER_Initialize                               0     0      0       0
 ---------------------------------------------------------------------------------
 (2) _OSCILLATOR_Initialize                                0     0      0       0
 ---------------------------------------------------------------------------------
 (2) _EUSART1_Initialize                                   0     0      0     294
            _EUSART1_SetErrorHandler
     _EUSART1_SetFramingErrorHandler
     _EUSART1_SetOverrunErrorHandler
 ---------------------------------------------------------------------------------
 (3) _EUSART1_SetOverrunErrorHandler                       2     0      2      98
                                              0 COMMON     2     0      2
 ---------------------------------------------------------------------------------
 (3) _EUSART1_SetFramingErrorHandler                       2     0      2      98
                                              0 COMMON     2     0      2
 ---------------------------------------------------------------------------------
 (3) _EUSART1_SetErrorHandler                              2     0      2      98
                                              0 COMMON     2     0      2
 ---------------------------------------------------------------------------------
 (2) _BOOTLOADER_Initialize                                0     0      0     540
                  _Bootload_Required
                     _Run_Bootloader
 ---------------------------------------------------------------------------------
 (3) _Run_Bootloader                                       4     4      0     510
                                              8 COMMON     4     4      0
                 _Check_Device_Reset
                       _EUSART1_Read
                      _EUSART1_Write
                  _ProcessBootBuffer
 ---------------------------------------------------------------------------------
 (4) _ProcessBootBuffer                                    3     3      0     303
                                              5 COMMON     3     3      0
                      _Calc_Checksum
                        _Erase_Flash
                   _Get_Version_Data
                        _Read_Config
                        _Write_Flash
 ---------------------------------------------------------------------------------
 (5) _Write_Flash                                          4     4      0      90
                                              0 COMMON     4     4      0
                         _StartWrite
 ---------------------------------------------------------------------------------
 (5) _Read_Config                                          3     3      0      68
                                              0 COMMON     3     3      0
 ---------------------------------------------------------------------------------
 (5) _Get_Version_Data                                     2     2      0      68
                                              0 COMMON     2     2      0
 ---------------------------------------------------------------------------------
 (5) _Erase_Flash                                          3     3      0      24
                                              0 COMMON     3     3      0
                         _StartWrite
 ---------------------------------------------------------------------------------
 (6) _StartWrite                                           0     0      0       0
 ---------------------------------------------------------------------------------
 (5) _Calc_Checksum                                        5     5      0      24
                                              0 COMMON     5     5      0
 ---------------------------------------------------------------------------------
 (4) _EUSART1_Write                                        1     1      0      22
                                              0 COMMON     1     1      0
 ---------------------------------------------------------------------------------
 (4) _EUSART1_Read                                         0     0      0       0
 ---------------------------------------------------------------------------------
 (4) _Check_Device_Reset                                   0     0      0       0
 ---------------------------------------------------------------------------------
 (3) _Bootload_Required                                    2     2      0      30
                                              0 COMMON     2     2      0
 ---------------------------------------------------------------------------------
 Estimated maximum stack depth 6
 ---------------------------------------------------------------------------------

 Call Graph Graphs:

 _main (ROOT)
   _SYSTEM_Initialize
     _BOOTLOADER_Initialize
       _Bootload_Required
       _Run_Bootloader
         _Check_Device_Reset
         _EUSART1_Read
         _EUSART1_Write
         _ProcessBootBuffer
           _Calc_Checksum
           _Erase_Flash
             _StartWrite
           _Get_Version_Data
           _Read_Config
           _Write_Flash
             _StartWrite
     _EUSART1_Initialize
       _EUSART1_SetErrorHandler
       _EUSART1_SetFramingErrorHandler
       _EUSART1_SetOverrunErrorHandler
     _OSCILLATOR_Initialize
     _PIN_MANAGER_Initialize
     _WDT_Initialize

 Address spaces:
Name               Size   Autos  Total    Cost      Usage
BIGRAM             1F0      0       0       0        0.0%
NULL                 0      0       0       0        0.0%
CODE                 0      0       0       0        0.0%
BITCOMMON            C      0       0       1        0.0%
BITSFR0              0      0       0       1        0.0%
SFR0                 0      0       0       1        0.0%
COMMON               C      C       C       2      100.0%
BITSFR1              0      0       0       2        0.0%
SFR1                 0      0       0       2        0.0%
BITSFR2              0      0       0       3        0.0%
SFR2                 0      0       0       3        0.0%
STACK                0      0       0       3        0.0%
BITSFR3              0      0       0       4        0.0%
SFR3                 0      0       0       4        0.0%
ABS                  0      0      64       4        0.0%
BITBANK0            50      0       0       5        0.0%
BITSFR4              0      0       0       5        0.0%
SFR4                 0      0       0       5        0.0%
BANK0               50      0       F       6       18.8%
BITSFR5              0      0       0       6        0.0%
SFR5                 0      0       0       6        0.0%
BITBANK1            50      0       0       7        0.0%
BITSFR6              0      0       0       7        0.0%
SFR6                 0      0       0       7        0.0%
BANK1               50      0      49       8       91.2%
BITSFR7              0      0       0       8        0.0%
SFR7                 0      0       0       8        0.0%
BITBANK2            50      0       0       9        0.0%
BITSFR8              0      0       0       9        0.0%
SFR8                 0      0       0       9        0.0%
BANK2               50      0       0      10        0.0%
BITSFR9              0      0       0      10        0.0%
SFR9                 0      0       0      10        0.0%
BITBANK3            50      0       0      11        0.0%
BITSFR10             0      0       0      11        0.0%
SFR10                0      0       0      11        0.0%
BANK3               50      0       0      12        0.0%
BITSFR11             0      0       0      12        0.0%
SFR11                0      0       0      12        0.0%
BITBANK4            50      0       0      13        0.0%
BITSFR12             0      0       0      13        0.0%
SFR12                0      0       0      13        0.0%
BANK4               50      0       0      14        0.0%
BITSFR13             0      0       0      14        0.0%
SFR13                0      0       0      14        0.0%
BITBANK5            50      0       0      15        0.0%
BITSFR14             0      0       0      15        0.0%
SFR14                0      0       0      15        0.0%
BANK5               50      0       0      16        0.0%
BITSFR15             0      0       0      16        0.0%
SFR15                0      0       0      16        0.0%
BITBANK6            10      0       0      17        0.0%
BITSFR16             0      0       0      17        0.0%
SFR16                0      0       0      17        0.0%
BANK6               10      0       0      18        0.0%
BITSFR17             0      0       0      18        0.0%
SFR17                0      0       0      18        0.0%
BITSFR18             0      0       0      19        0.0%
SFR18                0      0       0      19        0.0%
DATA                 0      0      64      19        0.0%
BITSFR19             0      0       0      20        0.0%
SFR19                0      0       0      20        0.0%
BITSFR20             0      0       0      21        0.0%
SFR20                0      0       0      21        0.0%
BITSFR21             0      0       0      22        0.0%
SFR21                0      0       0      22        0.0%
BITSFR22             0      0       0      23        0.0%
SFR22                0      0       0      23        0.0%
BITSFR23             0      0       0      24        0.0%
SFR23                0      0       0      24        0.0%
BITSFR24             0      0       0      25        0.0%
SFR24                0      0       0      25        0.0%
BITSFR25             0      0       0      26        0.0%
SFR25                0      0       0      26        0.0%
BITSFR26             0      0       0      27        0.0%
SFR26                0      0       0      27        0.0%
BITSFR27             0      0       0      28        0.0%
SFR27                0      0       0      28        0.0%
BITSFR28             0      0       0      29        0.0%
SFR28                0      0       0      29        0.0%
BITSFR29             0      0       0      30        0.0%
SFR29                0      0       0      30        0.0%
BITSFR30             0      0       0      31        0.0%
SFR30                0      0       0      31        0.0%
BITSFR31             0      0       0      32        0.0%
SFR31                0      0       0      32        0.0%
BITSFR32             0      0       0      33        0.0%
SFR32                0      0       0      33        0.0%
BITSFR33             0      0       0      34        0.0%
SFR33                0      0       0      34        0.0%
BITSFR34             0      0       0      35        0.0%
SFR34                0      0       0      35        0.0%
BITSFR35             0      0       0      36        0.0%
SFR35                0      0       0      36        0.0%
BITSFR36             0      0       0      37        0.0%
SFR36                0      0       0      37        0.0%
BITSFR37             0      0       0      38        0.0%
SFR37                0      0       0      38        0.0%
BITSFR38             0      0       0      39        0.0%
SFR38                0      0       0      39        0.0%
BITSFR39             0      0       0      40        0.0%
SFR39                0      0       0      40        0.0%
BITSFR40             0      0       0      41        0.0%
SFR40                0      0       0      41        0.0%
BITSFR41             0      0       0      42        0.0%
SFR41                0      0       0      42        0.0%
BITSFR42             0      0       0      43        0.0%
SFR42                0      0       0      43        0.0%
BITSFR43             0      0       0      44        0.0%
SFR43                0      0       0      44        0.0%
BITSFR44             0      0       0      45        0.0%
SFR44                0      0       0      45        0.0%
BITSFR45             0      0       0      46        0.0%
SFR45                0      0       0      46        0.0%
BITSFR46             0      0       0      47        0.0%
SFR46                0      0       0      47        0.0%
BITSFR47             0      0       0      48        0.0%
SFR47                0      0       0      48        0.0%
BITSFR48             0      0       0      49        0.0%
SFR48                0      0       0      49        0.0%
BITSFR49             0      0       0      50        0.0%
SFR49                0      0       0      50        0.0%
BITSFR50             0      0       0      51        0.0%
SFR50                0      0       0      51        0.0%
BITSFR51             0      0       0      52        0.0%
SFR51                0      0       0      52        0.0%
BITSFR52             0      0       0      53        0.0%
SFR52                0      0       0      53        0.0%
BITSFR53             0      0       0      54        0.0%
SFR53                0      0       0      54        0.0%
BITSFR54             0      0       0      55        0.0%
SFR54                0      0       0      55        0.0%
BITSFR55             0      0       0      56        0.0%
SFR55                0      0       0      56        0.0%
BITSFR56             0      0       0      57        0.0%
SFR56                0      0       0      57        0.0%
BITSFR57             0      0       0      58        0.0%
SFR57                0      0       0      58        0.0%
BITSFR58             0      0       0      59        0.0%
SFR58                0      0       0      59        0.0%
BITSFR59             0      0       0      60        0.0%
SFR59                0      0       0      60        0.0%
BITSFR60             0      0       0      61        0.0%
SFR60                0      0       0      61        0.0%
BITSFR61             0      0       0      62        0.0%
SFR61                0      0       0      62        0.0%
BITSFR62             0      0       0      63        0.0%
SFR62                0      0       0      63        0.0%
BITSFR63             0      0       0      64        0.0%
SFR63                0      0       0      64        0.0%


Microchip Technology PIC Macro Assembler V2.32 build 20210201212658 
Symbol Table                                                                                   Tue May 11 23:31:20 2021

                                 ??_Erase_Flash 0072                                              l49 029B  
                                            l73 030E                                              l76 034B  
                                            l79 0360                                              l96 001B  
                                            l97 001B                          __size_of_Calc_Checksum 0053  
                                           l100 002D                                             l101 0026  
                                           l230 0320                                             l206 02E8  
                                           l223 030F                                             l312 029D  
                                           l313 02A7                                             l233 0328  
                                           l315 02C5                                             l227 031E  
                                           l331 017F                                             l251 035D  
                                           l333 0197                                             l341 0119  
                                           l309 02FE                                             l245 0357  
                                           l350 0238                                             l334 01A2  
                                           l326 00BF                                             l343 0147  
                                           l352 0233                                             l344 014D  
                                           l328 00F0                                             l248 0351  
                                           l362 01B3                                             l372 0339  
                                           l356 0245                                             l380 0343  
                                           l365 01F5                                             l358 0271  
                                           l368 0331                                             l379 0343  
                          __size_of_Write_Flash 005D                                             _BSR 0008  
                                           u400 0108                                             u401 0107  
                                           u410 0119                                             u411 0118  
                                           u260 02A7                                             u500 0338  
                                           u420 0134                                             u261 02A6  
                                           u501 0337                                             u421 0133  
                                           u270 02AC                                             u510 0314  
                                           u430 0147                                             u271 02AB  
                                           u511 0313                                             u431 0146  
                                           u415 0115                                             u280 02BE  
                                           u520 031B                                             u440 020B  
                                           u600 0065                                             u281 02BD  
                                           u521 031A                                             u441 020A  
                                           u601 0064                                             u290 02C3  
                                           u530 0325                                             u450 0220  
                                           u610 006F                                             u291 02C2  
                                           u531 0324                                             u451 021F  
                                           u435 0143                                             u611 006E  
                                           u460 0233                                             u380 0193  
                                           u620 008D                                             u540 0020  
                                           u461 0232                                             u381 0192  
                                           u621 008C                                             u541 001F  
                                           u390 01A1                                             u470 0270  
                                           u550 002A                                             u630 02F4  
                                           u391 01A0                                             u471 026F  
                                           u551 0029                                             u631 02F3  
                                           u480 01D5                                             u560 0031  
                                           u481 01D4                                             u465 022F  
                                           u561 0030                                             u490 01E8  
                                           u570 0052                                             u491 01E7  
                                           u475 026C                                             u571 0051  
                                           u580 0059                                             u581 0058  
                                           u590 005F                                             u495 01E4  
                                           u591 005E                                             wreg 0009  
                         _BOOTLOADER_Initialize 02E9                                    _BAUD1CONbits 011F  
                                          l1200 027C                                            l1210 0288  
                                          l1202 027F                                            l1212 0289  
                                          l1204 0281                                            l1220 035E  
                                          l1214 0346                                            l1206 0285  
                                          l1216 0348                                            l1208 0287  
                                          l1170 02B0                                            l1162 029E  
                                          l1218 034A                                            l1180 02B7  
                                          l1172 02B2                                            l1164 02AC  
                                          l1156 029C                                            l1500 00F1  
                                          l1182 02BE                                            l1174 02B4  
                                          l1510 0128                                            l1502 00FB  
                                          l1176 02B5                                            l1168 02AE  
                                          l1600 0314                                            l1440 0329  
                                          l1520 0149                                            l1512 012B  
                                          l1504 00FE                                            l1192 0272  
                                          l1178 02B6                                            l1602 0316  
                                          l1530 0201                                            l1450 0157  
                                          l1442 014E                                            l1522 014C  
                                          l1514 0134                                            l1506 0108  
                                          l1610 008F                                            l1194 0276  
                                          l1188 02C4                                            l1604 031B  
                                          l1540 0217                                            l1532 020B  
                                          l1460 015F                                            l1452 0158  
                                          l1444 0153                                            l1516 0138  
                                          l1508 011B                                            l1620 00B8  
                                          l1612 009C                                            l1700 02E9  
                                          l1196 0278                                            l1606 031D  
                                          l1550 0237                                            l1542 0220  
                                          l1526 01F6                                            l1470 016E  
                                          l1462 0160                                            l1454 015C  
                                          l1446 0154                                            l1518 013C  
                                          l1622 00C4                                            l1614 00A3  
                                          l1702 02EC                                            l1198 027A  
                                          l1710 02FF                                            l1640 0325  
                                          l1544 0224                                            l1536 0212  
                                          l1528 01FE                                            l1480 017A  
                                          l1472 016F                                            l1464 0161  
                                          l1456 015D                                            l1448 0155  
                                          l1560 025A                                            l1624 00C9  
                                          l1616 00AA                                            l1704 02F4  
                                          l1712 0305                                            l1570 01A3  
                                          l1538 0214                                            l1546 0228  
                                          l1490 018B                                            l1482 017B  
                                          l1474 0173                                            l1466 0167  
                                          l1458 015E                                            l1562 025E  
                                          l1554 0239                                            l1618 00B1  
                                          l1626 00D2                                            l1650 0034  
                                          l1642 0020                                            l1706 02F7  
                                          l1714 0308                                            l1580 01D5  
                                          l1572 01AD                                            l1548 0235  
                                          l1492 0193                                            l1476 0177  
                                          l1468 016D                                            l1564 0262  
                                          l1556 0243                                            l1628 00EF  
                                          l1660 004C                                            l1652 0035  
                                          l1644 0023                                            l1708 02FA  
                                          l1716 030B                                            l1638 0320  
                                          l1590 01F4                                            l1582 01D9  
                                          l1574 01B0                                            l1494 019B  
                                          l1478 0179                                            l1566 0270  
                                          l1558 0249                                            l1750 00DB  
                                          l1662 0052                                            l1654 003A  
                                          l1670 0069                                            l1646 002A  
                                          l1718 0340                                            l1576 01B7  
                                          l1584 01DD                                            l1496 01A1  
                                          l1488 0182                                            l1680 0083  
                                          l1672 006F                                            l1664 0059  
                                          l1656 0040                                            l1648 0031  
                                          l1594 0332                                            l1586 01E8  
                                          l1578 01CC                                            l1682 0087  
                                          l1674 0075                                            l1666 005F  
                                          l1658 0048                                            l1690 02C6  
                                          l1596 0338                                            l1588 01EE  
                                          l1676 0079                                            l1668 0065  
                                          l1684 0352                                            l1692 02D1  
                                          l1598 030F                                            l1678 007B  
                                          l1686 034C                                            l1694 02D8  
                                          l1688 0358                                            l1696 02DF  
                                          l1698 02E6                              Bootload_Required@i 0073  
                                          _LATA 0018                                            _LATB 0019  
                                          _LATC 001A                                            _WPUA 1F39  
                                          _WPUB 1F44                                            _WPUC 1F4F  
                                 _EUSART1_Write 031F                                            _main 0340  
                                 ?_EUSART1_Read 0072                                            fsr0h 0005  
                                          fsr1h 0007                                            indf0 0000  
                                          fsr0l 0004                                            indf1 0001  
                                          fsr1l 0006                                            btemp 007E  
                                          start 0006                                   ??_Read_Config 0072  
                    __size_of_ProcessBootBuffer 0062                  __size_of_OSCILLATOR_Initialize 0006  
                 __end_of_OSCILLATOR_Initialize 034C                                           ?_main 0072  
                           __end_of_Erase_Flash 0239                                           _OSCEN 0891  
                                         _TRISA 0012                                           _TRISB 0013  
                                         _TRISC 0014                                           _frame 00A0  
                                _WDT_Initialize 035E                                  ?_EUSART1_Write 0072  
                                 _Calc_Checksum 01A3                                  ??_EUSART1_Read 0072  
                                         status 0003                                           wtemp0 007E  
            _EUSART1_DefaultFramingErrorHandler 0000                                 __initialization 0008  
                    __end_of_EUSART1_Initialize 02E9                                    __end_of_main 0346  
                                        ??_main 007E                             __end_of_Read_Config 0272  
                        ?_BOOTLOADER_Initialize 0072                          __end_of_WDT_Initialize 0361  
                                        NVMCON1 081E                                          NVMCON2 081F  
                                        _ANSELA 1F38                                          _ANSELB 1F43  
                                        _ANSELC 1F4E                                  ?_Calc_Checksum 0072  
                                        _RC1REG 0119                                          _RC0PPS 1F20  
                                        _RC1STA 011D                                          _ODCONA 1F3A  
                                        _ODCONB 1F45                                          _ODCONC 1F50  
                                        _INLVLA 1F3C                                          _INLVLB 1F47  
                                        _INLVLC 1F52                                          _OSCFRQ 0893  
                                        _RX1PPS 1ECB                                          _TX1REG 011A  
                                        _WDTCON 080C                                          _TX1STA 011E  
                                        _STKPTR 1FED                       __size_of_Get_Version_Data 0055  
                                   _Erase_Flash 01F6                        ?_EUSART1_SetErrorHandler 0072  
              ??_EUSART1_SetOverrunErrorHandler 0074                 ?_EUSART1_SetOverrunErrorHandler 0072  
                   __size_of_Check_Device_Reset 0008                                 ?_WDT_Initialize 0072  
                                  Read_Config@i 0074                                 ??_EUSART1_Write 0072  
                                    _StartWrite 0329                               _SYSTEM_Initialize 02FF  
                       __end_of__initialization 0018                              ?_SYSTEM_Initialize 0072  
                                __pcstackCOMMON 0072                             ??_SYSTEM_Initialize 007E  
                                   _Read_Config 0239                            __end_of_EUSART1_Read 031F  
                               ??_Calc_Checksum 0072                       __end_of_SYSTEM_Initialize 030F  
                                    __pbssBANK0 0020                                      __pbssBANK1 00A0  
                                  Write_Flash@i 0074                 __end_of_EUSART1_SetErrorHandler 035E  
                                    __pmaintext 0340                                   ??_Write_Flash 0072  
        __end_of_EUSART1_SetFramingErrorHandler 0358         __size_of_EUSART1_SetFramingErrorHandler 0006  
                _EUSART1_SetFramingErrorHandler 0352                                         _SP1BRGH 011C  
                                       _SP1BRGL 011B                                         _NVMADRH 081B  
                                       _NVMADRL 081A                                         _NVMDATH 081D  
                                       _OSCTUNE 0892                                         _NVMDATL 081C  
                                       _NVMCON1 081E                                         _NVMCON2 081F  
                                       _SLRCONA 1F3B                                         _SLRCONB 1F46  
                                       _SLRCONC 1F51                                     ?_StartWrite 0072  
                       __size_of_Run_Bootloader 0074                                _Get_Version_Data 014E  
                       ??_BOOTLOADER_Initialize 007E                                         __ptext0 0000  
                                       __ptext1 02FF                                         __ptext2 035E  
                                       __ptext3 0272                                         __ptext4 0346  
                                       __ptext5 02C6                                         __ptext6 034C  
                                       __ptext7 0352                                         __ptext8 0358  
                                       __ptext9 02E9                                         _counter 0020  
                         _OSCILLATOR_Initialize 0346                             __end_of_Write_Flash 014E  
                            _EUSART1_Initialize 02C6                        ??_PIN_MANAGER_Initialize 0072  
                                       _rx_data 0026                                         _tx_data 0025  
                    __size_of_SYSTEM_Initialize 0010                                         clrloop0 033B  
                          end_of_initialization 0018                             ?_EUSART1_Initialize 0072  
                   _EUSART1_OverrunErrorHandler 002B                                    ?_Erase_Flash 0072  
                         __size_of_EUSART1_Read 0010                            ??_EUSART1_Initialize 0074  
                           __size_of_StartWrite 0009                                ??_WDT_Initialize 0072  
                                     _PORTCbits 000E                __size_of_EUSART1_SetErrorHandler 0006  
                           EUSART1_Write@txData 0072                                    _EUSART1_Read 030F  
                                  ?_Read_Config 0072                      __end_of_Check_Device_Reset 033A  
                                   _Write_Flash 00F1                          ?_OSCILLATOR_Initialize 0072  
                           start_initialization 0008                 __size_of_PIN_MANAGER_Initialize 002A  
                         __end_of_EUSART1_Write 0329                                  _Run_Bootloader 001B  
                             _Bootload_Required 029C                              ?_Bootload_Required 0072  
                           ??_Bootload_Required 0072                        __end_of_Get_Version_Data 01A3  
                                     ___latbits 0001                                     _data_length 0027  
                                  ??_StartWrite 0072                           __end_of_Calc_Checksum 01F6  
                        __end_of_Run_Bootloader 008F                ??_EUSART1_SetFramingErrorHandler 0074  
               ?_EUSART1_SetFramingErrorHandler 0072                                       __pnvBANK0 0029  
                                     _check_sum 0022                       __end_of_Bootload_Required 02C6  
                        _PIN_MANAGER_Initialize 0272                            __size_of_Erase_Flash 0043  
                            __end_of_StartWrite 0332                                        _BAUD1CON 011F  
                __size_of_BOOTLOADER_Initialize 0016                   __end_of_BOOTLOADER_Initialize 02FF  
            _EUSART1_DefaultOverrunErrorHandler 0000                            _EUSART1_ErrorHandler 0029  
                       _EUSART1_SetErrorHandler 0358                                 ?_Run_Bootloader 0072  
                                      _EE_Key_1 0070                                        _EE_Key_2 0071  
       EUSART1_SetErrorHandler@interruptHandler 0072                                       clear_ram0 033A  
                                 _reset_pending 0024                                        _PIR1bits 070D  
                          __size_of_Read_Config 0039                        Run_Bootloader@msg_length 007C  
                          ProcessBootBuffer@len 0079                      __size_of_Bootload_Required 002A  
                       ??_OSCILLATOR_Initialize 0072                                    ?_Write_Flash 0072  
                   __size_of_EUSART1_Initialize 0023                       ??_EUSART1_SetErrorHandler 0074  
                   _EUSART1_DefaultErrorHandler 0000                              _Check_Device_Reset 0332  
                                      __ptext10 001B                                        __ptext11 008F  
                                      __ptext20 0332                                        __ptext12 00F1  
                                      __ptext21 029C                                        __ptext13 0239  
                                      __ptext14 014E                                        __ptext15 01F6  
                                      __ptext16 0329                                        __ptext17 01A3  
                                      __ptext18 031F                                        __ptext19 030F  
                           ?_Check_Device_Reset 0072                                   __size_of_main 0006  
                              Run_Bootloader@ch 007B                                      _RC1STAbits 011D  
                           Run_Bootloader@index 007D  EUSART1_SetOverrunErrorHandler@interruptHandler 0072  
                   _EUSART1_FramingErrorHandler 002D                            ??_Check_Device_Reset 0072  
                             _ProcessBootBuffer 008F                                      _INTCONbits 000B  
                             Get_Version_Data@i 0073                              ?_ProcessBootBuffer 0072  
                                   _NVMCON1bits 081E                               ?_Get_Version_Data 0072  
                            ??_Get_Version_Data 0072                         __size_of_WDT_Initialize 0003  
                           ??_ProcessBootBuffer 0077                         ?_PIN_MANAGER_Initialize 0072  
        __end_of_EUSART1_SetOverrunErrorHandler 0352         __size_of_EUSART1_SetOverrunErrorHandler 0006  
                _EUSART1_SetOverrunErrorHandler 034C  EUSART1_SetFramingErrorHandler@interruptHandler 0072  
                     __end_of_ProcessBootBuffer 00F1                          __size_of_EUSART1_Write 000A  
                            _eusart1RxLastError 0028                                    Erase_Flash@i 0073  
                              ??_Run_Bootloader 007A                                      _TX1STAbits 011E  
                __end_of_PIN_MANAGER_Initialize 029C                                  Calc_Checksum@i 0075  
